Certificate:
    Data:
        Version: 3 (0x2)
        Serial Number:
            8f:51:6a:bd:11:b3:55:c4:0c:f9:27:bb:db:24:a6:18
        Signature Algorithm: sha256WithRSAEncryption
        Issuer: CN=Easy-RSA CA
        Validity
            Not Before: May 29 02:57:58 2021 GMT
            Not After : Sep  1 02:57:58 2023 GMT
        Subject: CN=client7
        Subject Public Key Info:
            Public Key Algorithm: rsaEncryption
                RSA Public-Key: (2048 bit)
                Modulus:
                    00:d2:95:33:82:32:e3:7e:5e:43:86:b1:0f:f2:d0:
                    c0:2a:68:3c:6b:27:a9:31:78:b0:16:2e:c0:47:da:
                    f2:1f:40:96:a3:5d:fb:84:4e:1c:fa:f4:d9:5d:79:
                    a8:27:ea:23:9a:6b:a8:98:8a:c9:55:86:bd:b5:74:
                    6b:17:f2:a5:85:72:01:a1:4a:ca:39:db:f9:c0:3d:
                    92:3a:6d:2d:dd:7c:bf:fe:d2:50:cc:b7:c7:43:c6:
                    08:56:94:94:ef:d1:f9:d5:4a:3f:42:40:3c:72:0a:
                    02:c0:80:86:1a:69:e5:23:b9:fd:7b:fa:ae:7d:9c:
                    16:20:b6:b1:1c:6e:7a:89:be:07:7a:c9:7c:f5:f9:
                    b3:79:6f:b1:eb:51:cb:09:ab:95:4e:b2:1e:2a:ee:
                    62:36:48:a6:f1:52:5f:6b:21:36:14:3c:13:96:8f:
                    f9:6e:dd:08:7d:7b:a0:22:14:80:9f:6f:98:d4:67:
                    06:c2:ca:dd:d6:94:4a:9d:d2:da:5c:c7:60:6e:ce:
                    8a:ad:cd:39:5a:91:fb:1e:52:18:80:ef:a2:26:cf:
                    4a:d2:1c:8c:e4:d3:6e:95:ce:de:46:2a:b2:94:bf:
                    b5:57:30:63:44:3a:14:b0:d8:43:9b:63:aa:09:b7:
                    08:32:31:bb:c4:66:93:7a:f1:38:be:82:24:4b:5a:
                    1b:e1
                Exponent: 65537 (0x10001)
        X509v3 extensions:
            X509v3 Basic Constraints: 
                CA:FALSE
            X509v3 Subject Key Identifier: 
                E0:60:D3:38:27:ED:F7:F9:68:17:73:96:5B:68:4B:79:28:10:30:5A
            X509v3 Authority Key Identifier: 
                keyid:8B:20:EF:1E:79:AA:08:54:83:89:B6:B6:38:B0:FB:3E:78:16:A1:62
                DirName:/CN=Easy-RSA CA
                serial:79:7C:76:2B:CB:8E:27:F0:E7:73:9C:57:63:8C:36:CF:E6:78:3E:BD

            X509v3 Extended Key Usage: 
                TLS Web Client Authentication
            X509v3 Key Usage: 
                Digital Signature
    Signature Algorithm: sha256WithRSAEncryption
         35:ca:07:f9:70:64:a8:3f:e7:09:0c:8a:6f:a3:2b:35:1a:a7:
         44:d0:c5:ff:f6:63:66:98:9d:8c:af:5f:8f:5d:f6:f6:9c:10:
         07:fe:5b:00:a2:e7:18:25:e5:c0:67:d6:09:48:1f:27:09:9a:
         94:54:3b:e8:39:81:d2:1c:d6:6b:ae:cc:e0:57:57:ae:80:a5:
         ba:88:03:2f:49:26:67:db:95:98:00:3d:95:ee:ca:44:59:3d:
         9e:95:91:f0:bc:7f:e0:8a:c6:c9:0a:ad:cb:01:de:1b:b2:29:
         1a:39:1d:a2:a0:3a:0e:84:3b:18:6e:d1:49:fe:57:b0:b3:20:
         89:b2:3a:ee:0f:b9:44:d9:a3:9b:77:16:3e:07:3d:57:0e:28:
         4c:bb:24:d5:eb:55:0b:13:4b:5b:60:cf:f2:b2:04:44:ea:bf:
         17:fc:4d:69:24:89:ab:d3:3e:32:78:f6:8c:7c:8b:14:e6:1f:
         ea:b4:2b:3b:45:66:6e:9d:af:dc:34:70:3f:b1:d1:a1:ff:bc:
         fd:39:cb:62:9f:d6:5f:b6:90:be:30:bd:cc:de:42:aa:1f:1f:
         85:b7:bf:fb:59:88:d5:71:7f:32:01:dc:93:19:7b:4a:94:45:
         11:66:54:fa:ee:77:7c:8c:69:9c:b1:0e:21:21:50:b9:0e:af:
         eb:c1:8b:0f
-----BEGIN CERTIFICATE-----
MIIDVjCCAj6gAwIBAgIRAI9Rar0Rs1XEDPknu9skphgwDQYJKoZIhvcNAQELBQAw
FjEUMBIGA1UEAwwLRWFzeS1SU0EgQ0EwHhcNMjEwNTI5MDI1NzU4WhcNMjMwOTAx
MDI1NzU4WjASMRAwDgYDVQQDDAdjbGllbnQ3MIIBIjANBgkqhkiG9w0BAQEFAAOC
AQ8AMIIBCgKCAQEA0pUzgjLjfl5DhrEP8tDAKmg8ayepMXiwFi7AR9ryH0CWo137
hE4c+vTZXXmoJ+ojmmuomIrJVYa9tXRrF/KlhXIBoUrKOdv5wD2SOm0t3Xy//tJQ
zLfHQ8YIVpSU79H51Uo/QkA8cgoCwICGGmnlI7n9e/qufZwWILaxHG56ib4Hesl8
9fmzeW+x61HLCauVTrIeKu5iNkim8VJfayE2FDwTlo/5bt0IfXugIhSAn2+Y1GcG
wsrd1pRKndLaXMdgbs6Krc05WpH7HlIYgO+iJs9K0hyM5NNulc7eRiqylL+1VzBj
RDoUsNhDm2OqCbcIMjG7xGaTevE4voIkS1ob4QIDAQABo4GiMIGfMAkGA1UdEwQC
MAAwHQYDVR0OBBYEFOBg0zgn7ff5aBdzlltoS3koEDBaMFEGA1UdIwRKMEiAFIsg
7x55qghUg4m2tjiw+z54FqFioRqkGDAWMRQwEgYDVQQDDAtFYXN5LVJTQSBDQYIU
eXx2K8uOJ/Dnc5xXY4w2z+Z4Pr0wEwYDVR0lBAwwCgYIKwYBBQUHAwIwCwYDVR0P
BAQDAgeAMA0GCSqGSIb3DQEBCwUAA4IBAQA1ygf5cGSoP+cJDIpvoys1GqdE0MX/
9mNmmJ2Mr1+PXfb2nBAH/lsAoucYJeXAZ9YJSB8nCZqUVDvoOYHSHNZrrszgV1eu
gKW6iAMvSSZn25WYAD2V7spEWT2elZHwvH/gisbJCq3LAd4bsikaOR2ioDoOhDsY
btFJ/lewsyCJsjruD7lE2aObdxY+Bz1XDihMuyTV61ULE0tbYM/ysgRE6r8X/E1p
JImr0z4yePaMfIsU5h/qtCs7RWZuna/cNHA/sdGh/7z9Octin9ZftpC+ML3M3kKq
Hx+Ft7/7WYjVcX8yAdyTGXtKlEURZlT67nd8jGmcsQ4hIVC5Dq/rwYsP
-----END CERTIFICATE-----
