Certificate:
    Data:
        Version: 3 (0x2)
        Serial Number:
            ec:5e:0f:8e:69:56:c9:95:f2:a6:09:d3:c5:19:99:d8
        Signature Algorithm: sha256WithRSAEncryption
        Issuer: CN=Easy-RSA CA
        Validity
            Not Before: May 28 02:09:58 2021 GMT
            Not After : Aug 31 02:09:58 2023 GMT
        Subject: CN=CLIENTNAME
        Subject Public Key Info:
            Public Key Algorithm: rsaEncryption
                RSA Public-Key: (2048 bit)
                Modulus:
                    00:e0:29:24:17:85:4b:83:f6:5f:ae:31:23:2c:e5:
                    f9:67:09:71:94:a3:f7:d9:ca:e4:d0:e4:7f:73:88:
                    0d:28:5b:17:67:fa:43:31:61:05:a3:3d:26:65:0d:
                    70:ff:2b:12:3d:bf:5a:94:08:b7:90:c0:a6:45:2f:
                    0f:ba:21:53:46:4e:0a:b5:6b:79:61:3d:03:c8:9e:
                    3b:14:15:7f:0d:ce:a8:f9:85:2d:83:22:a3:47:56:
                    d3:e9:b0:1f:15:9d:61:c7:42:78:70:e8:85:8e:b7:
                    b0:de:67:8f:54:cb:10:18:6e:3c:b8:10:d8:39:94:
                    76:63:16:aa:f0:a5:f9:cb:e9:4a:8b:48:2e:b5:13:
                    78:7d:59:83:fd:c9:83:75:43:0a:3e:78:2e:8d:d4:
                    ce:d0:20:39:26:ec:05:a1:98:b3:29:2e:ce:65:19:
                    1e:6c:5b:3f:a3:ae:ef:ec:f7:7a:ae:cf:d7:82:5a:
                    29:29:ec:25:4d:4e:0d:74:de:52:93:b5:e5:cb:70:
                    cb:db:4b:5d:be:4d:28:d0:5f:e8:13:cf:da:db:01:
                    6a:1a:ae:27:67:4e:5a:8b:f2:07:5d:01:fc:cd:f4:
                    12:db:1c:27:d9:47:fe:fd:68:53:75:5d:ea:06:30:
                    b8:6d:aa:a2:df:2a:e3:c4:17:31:2b:1d:a2:c2:64:
                    7c:05
                Exponent: 65537 (0x10001)
        X509v3 extensions:
            X509v3 Basic Constraints: 
                CA:FALSE
            X509v3 Subject Key Identifier: 
                5A:74:DA:34:25:87:D1:79:79:8D:E3:03:30:A9:47:CA:F5:D8:FF:57
            X509v3 Authority Key Identifier: 
                keyid:8B:20:EF:1E:79:AA:08:54:83:89:B6:B6:38:B0:FB:3E:78:16:A1:62
                DirName:/CN=Easy-RSA CA
                serial:79:7C:76:2B:CB:8E:27:F0:E7:73:9C:57:63:8C:36:CF:E6:78:3E:BD

            X509v3 Extended Key Usage: 
                TLS Web Client Authentication
            X509v3 Key Usage: 
                Digital Signature
    Signature Algorithm: sha256WithRSAEncryption
         00:40:d9:6c:f0:a9:1d:24:7d:fe:12:ed:a9:d3:3d:55:c9:77:
         92:75:8f:00:9f:ae:e8:39:ad:6f:ab:f9:7b:c6:9c:61:3e:67:
         d8:33:1e:f4:c6:08:c5:66:cd:c4:70:97:39:29:01:d2:e5:41:
         75:d8:76:24:de:09:03:e3:7d:40:17:77:2c:55:e1:9e:33:95:
         e3:af:21:36:fc:fb:4a:51:50:cc:7b:eb:ca:5a:f5:ba:44:6b:
         b6:97:ed:e6:6f:a7:53:da:7f:9e:47:22:be:1d:50:75:8c:99:
         0b:95:36:ad:0c:eb:86:1c:13:0b:d9:09:9f:cd:35:19:d3:ae:
         19:dc:ca:6e:22:47:5f:d2:2a:db:2b:e1:c3:94:4f:af:0d:9a:
         d3:e3:11:79:9f:81:4f:d6:3c:bc:d3:92:a4:de:4d:f3:bf:84:
         83:02:a0:33:4a:c6:41:9d:b4:c6:df:88:16:8e:6e:df:b7:b1:
         69:72:33:6f:a5:a8:44:e7:a7:59:0c:86:71:f1:4d:78:80:84:
         47:c0:93:e7:23:de:e4:85:b6:65:c0:cb:d0:02:a8:7d:df:3f:
         15:9a:ca:ce:ed:3d:79:cb:38:1d:17:e3:8a:ed:54:04:dc:3b:
         f6:07:83:63:02:aa:23:61:11:28:da:b2:7d:e9:5e:7f:b7:cf:
         b1:3f:b3:23
-----BEGIN CERTIFICATE-----
MIIDWTCCAkGgAwIBAgIRAOxeD45pVsmV8qYJ08UZmdgwDQYJKoZIhvcNAQELBQAw
FjEUMBIGA1UEAwwLRWFzeS1SU0EgQ0EwHhcNMjEwNTI4MDIwOTU4WhcNMjMwODMx
MDIwOTU4WjAVMRMwEQYDVQQDDApDTElFTlROQU1FMIIBIjANBgkqhkiG9w0BAQEF
AAOCAQ8AMIIBCgKCAQEA4CkkF4VLg/ZfrjEjLOX5ZwlxlKP32crk0OR/c4gNKFsX
Z/pDMWEFoz0mZQ1w/ysSPb9alAi3kMCmRS8PuiFTRk4KtWt5YT0DyJ47FBV/Dc6o
+YUtgyKjR1bT6bAfFZ1hx0J4cOiFjrew3mePVMsQGG48uBDYOZR2Yxaq8KX5y+lK
i0gutRN4fVmD/cmDdUMKPngujdTO0CA5JuwFoZizKS7OZRkebFs/o67v7Pd6rs/X
glopKewlTU4NdN5Sk7Xly3DL20tdvk0o0F/oE8/a2wFqGq4nZ05ai/IHXQH8zfQS
2xwn2Uf+/WhTdV3qBjC4baqi3yrjxBcxKx2iwmR8BQIDAQABo4GiMIGfMAkGA1Ud
EwQCMAAwHQYDVR0OBBYEFFp02jQlh9F5eY3jAzCpR8r12P9XMFEGA1UdIwRKMEiA
FIsg7x55qghUg4m2tjiw+z54FqFioRqkGDAWMRQwEgYDVQQDDAtFYXN5LVJTQSBD
QYIUeXx2K8uOJ/Dnc5xXY4w2z+Z4Pr0wEwYDVR0lBAwwCgYIKwYBBQUHAwIwCwYD
VR0PBAQDAgeAMA0GCSqGSIb3DQEBCwUAA4IBAQAAQNls8KkdJH3+Eu2p0z1VyXeS
dY8An67oOa1vq/l7xpxhPmfYMx70xgjFZs3EcJc5KQHS5UF12HYk3gkD431AF3cs
VeGeM5XjryE2/PtKUVDMe+vKWvW6RGu2l+3mb6dT2n+eRyK+HVB1jJkLlTatDOuG
HBML2QmfzTUZ064Z3MpuIkdf0irbK+HDlE+vDZrT4xF5n4FP1jy805Kk3k3zv4SD
AqAzSsZBnbTG34gWjm7ft7FpcjNvpahE56dZDIZx8U14gIRHwJPnI97khbZlwMvQ
Aqh93z8VmsrO7T15yzgdF+OK7VQE3Dv2B4NjAqojYREo2rJ96V5/t8+xP7Mj
-----END CERTIFICATE-----
