Certificate:
    Data:
        Version: 3 (0x2)
        Serial Number:
            62:7f:17:4d:f5:20:d8:e2:ac:ef:b2:b6:99:f6:95:96
        Signature Algorithm: sha256WithRSAEncryption
        Issuer: CN=Easy-RSA CA
        Validity
            Not Before: May 29 08:59:59 2021 GMT
            Not After : Sep  1 08:59:59 2023 GMT
        Subject: CN=main_win
        Subject Public Key Info:
            Public Key Algorithm: rsaEncryption
                RSA Public-Key: (2048 bit)
                Modulus:
                    00:96:8b:5b:63:64:5d:a2:5e:58:5d:f4:14:d9:fd:
                    21:4d:60:f0:d3:12:1d:bc:c1:e2:83:f0:c2:1a:e6:
                    a0:4a:6f:05:20:7c:7d:81:c6:ac:dd:69:27:56:8a:
                    bf:86:26:75:e8:fc:79:67:5d:e9:16:b5:da:70:34:
                    c0:d1:71:90:e4:4d:29:1d:70:23:88:14:20:3d:49:
                    4d:76:4d:62:e8:5e:3b:cc:80:16:bd:33:1d:cb:3c:
                    e1:1f:63:c2:e6:16:54:a3:82:dc:2d:bf:5b:83:f7:
                    d0:cd:01:36:89:a2:e0:cd:d0:66:aa:ef:0c:2e:cd:
                    6d:89:ce:3b:e9:bb:a4:ae:a8:f0:70:d6:6b:4c:35:
                    62:c2:ba:c4:a5:ce:5d:2e:a6:1b:55:01:07:96:7b:
                    2d:af:0e:98:5b:87:49:23:d6:8c:3c:3e:99:bf:a6:
                    62:69:eb:34:12:54:4f:4c:48:f7:59:5b:d9:93:cb:
                    7f:af:2e:a6:cc:4d:34:c0:33:e8:a9:12:bb:10:4b:
                    af:32:50:c3:93:1a:96:e7:87:9e:67:3f:65:18:58:
                    bc:65:b2:17:20:e6:5e:87:b1:ed:e6:bf:06:e9:f2:
                    ff:3e:be:19:ac:20:be:05:6b:f4:40:cf:8e:21:47:
                    9b:6a:dc:70:50:dd:4a:9c:3a:d0:ca:ca:61:e0:30:
                    6b:41
                Exponent: 65537 (0x10001)
        X509v3 extensions:
            X509v3 Basic Constraints: 
                CA:FALSE
            X509v3 Subject Key Identifier: 
                F0:1A:8B:DE:60:60:81:22:50:68:7B:6D:6A:B5:56:47:E8:C2:2F:C8
            X509v3 Authority Key Identifier: 
                keyid:8B:20:EF:1E:79:AA:08:54:83:89:B6:B6:38:B0:FB:3E:78:16:A1:62
                DirName:/CN=Easy-RSA CA
                serial:79:7C:76:2B:CB:8E:27:F0:E7:73:9C:57:63:8C:36:CF:E6:78:3E:BD

            X509v3 Extended Key Usage: 
                TLS Web Client Authentication
            X509v3 Key Usage: 
                Digital Signature
    Signature Algorithm: sha256WithRSAEncryption
         36:d2:96:fb:fd:38:d6:73:45:6f:9c:9d:c8:47:ed:45:65:d3:
         6f:9b:64:4e:24:b7:b2:96:09:27:d2:af:a5:af:63:27:93:71:
         fc:cd:72:43:f2:50:7a:e8:82:07:a8:1f:4d:da:23:81:5b:69:
         15:99:e6:ce:36:56:5c:c5:96:42:17:2d:b0:68:a6:14:56:4f:
         49:03:23:6f:82:90:0a:a1:f8:aa:fd:3a:0c:dd:fa:8b:f5:2b:
         72:50:61:26:79:32:b1:4f:36:19:2a:28:6c:95:90:f3:42:7f:
         5c:71:ef:db:db:9b:83:8a:5d:39:33:b7:ac:fc:51:f2:5d:fd:
         b8:bd:18:60:1e:38:80:98:88:2b:de:61:97:21:7d:04:54:00:
         7e:ad:97:b0:aa:95:a4:39:f7:0c:7c:22:9c:34:33:28:0b:31:
         4f:0c:a0:e1:0b:03:56:bd:ac:a6:cd:d4:df:8e:36:12:f1:99:
         7e:d1:92:4f:91:81:19:2b:5b:fc:a9:b2:14:62:fe:1c:63:ee:
         a5:d0:cc:e0:4e:8a:81:ea:43:bb:15:3e:60:d8:f9:d4:40:91:
         d8:74:4f:d8:2a:79:7d:c7:b9:36:17:d9:76:73:43:b6:74:e6:
         bf:a0:37:0c:35:70:15:3d:61:c8:cf:66:a4:7a:9d:86:9d:a6:
         01:0c:fa:54
-----BEGIN CERTIFICATE-----
MIIDVjCCAj6gAwIBAgIQYn8XTfUg2OKs77K2mfaVljANBgkqhkiG9w0BAQsFADAW
MRQwEgYDVQQDDAtFYXN5LVJTQSBDQTAeFw0yMTA1MjkwODU5NTlaFw0yMzA5MDEw
ODU5NTlaMBMxETAPBgNVBAMMCG1haW5fd2luMIIBIjANBgkqhkiG9w0BAQEFAAOC
AQ8AMIIBCgKCAQEAlotbY2Rdol5YXfQU2f0hTWDw0xIdvMHig/DCGuagSm8FIHx9
gcas3WknVoq/hiZ16Px5Z13pFrXacDTA0XGQ5E0pHXAjiBQgPUlNdk1i6F47zIAW
vTMdyzzhH2PC5hZUo4LcLb9bg/fQzQE2iaLgzdBmqu8MLs1tic476bukrqjwcNZr
TDViwrrEpc5dLqYbVQEHlnstrw6YW4dJI9aMPD6Zv6Ziaes0ElRPTEj3WVvZk8t/
ry6mzE00wDPoqRK7EEuvMlDDkxqW54eeZz9lGFi8ZbIXIOZeh7Ht5r8G6fL/Pr4Z
rCC+BWv0QM+OIUebatxwUN1KnDrQysph4DBrQQIDAQABo4GiMIGfMAkGA1UdEwQC
MAAwHQYDVR0OBBYEFPAai95gYIEiUGh7bWq1Vkfowi/IMFEGA1UdIwRKMEiAFIsg
7x55qghUg4m2tjiw+z54FqFioRqkGDAWMRQwEgYDVQQDDAtFYXN5LVJTQSBDQYIU
eXx2K8uOJ/Dnc5xXY4w2z+Z4Pr0wEwYDVR0lBAwwCgYIKwYBBQUHAwIwCwYDVR0P
BAQDAgeAMA0GCSqGSIb3DQEBCwUAA4IBAQA20pb7/TjWc0VvnJ3IR+1FZdNvm2RO
JLeylgkn0q+lr2Mnk3H8zXJD8lB66IIHqB9N2iOBW2kVmebONlZcxZZCFy2waKYU
Vk9JAyNvgpAKofiq/ToM3fqL9StyUGEmeTKxTzYZKihslZDzQn9cce/b25uDil05
M7es/FHyXf24vRhgHjiAmIgr3mGXIX0EVAB+rZewqpWkOfcMfCKcNDMoCzFPDKDh
CwNWvaymzdTfjjYS8Zl+0ZJPkYEZK1v8qbIUYv4cY+6l0MzgToqB6kO7FT5g2PnU
QJHYdE/YKnl9x7k2F9l2c0O2dOa/oDcMNXAVPWHIz2akep2GnaYBDPpU
-----END CERTIFICATE-----
