Certificate:
    Data:
        Version: 3 (0x2)
        Serial Number:
            33:cd:f0:5e:93:90:27:56:ae:ed:48:b5:a7:ae:c9:27
        Signature Algorithm: sha256WithRSAEncryption
        Issuer: CN=Easy-RSA CA
        Validity
            Not Before: Jun  1 15:59:02 2021 GMT
            Not After : Sep  4 15:59:02 2023 GMT
        Subject: CN=winmain
        Subject Public Key Info:
            Public Key Algorithm: rsaEncryption
                RSA Public-Key: (2048 bit)
                Modulus:
                    00:9a:24:e5:c5:27:ce:3e:03:8f:eb:11:67:ce:cd:
                    38:68:48:1a:bf:7c:c0:0a:f2:84:c1:2b:52:1c:1c:
                    a1:bb:75:e3:18:48:bc:a6:c5:65:73:70:1d:49:0f:
                    7f:f0:2a:53:c1:c9:e7:65:6e:f9:3c:e1:bc:9c:26:
                    f9:9c:72:8f:e4:a6:c5:ac:2e:53:b6:8e:e2:b5:d5:
                    f6:69:01:a1:c4:95:41:b1:80:8c:c6:8d:d9:b5:09:
                    57:76:5f:ed:62:95:43:a7:ba:a4:de:89:c6:e6:a4:
                    ac:b7:93:26:00:30:9e:d2:96:fc:26:5f:7d:18:66:
                    b6:4f:3c:1d:bf:24:e4:0d:e3:6d:ba:25:9b:56:e7:
                    73:41:3e:5e:aa:be:d4:97:29:76:15:52:12:1b:ae:
                    3a:53:99:6b:9b:1b:4b:64:8a:ed:0b:67:37:c7:12:
                    f8:57:cb:54:39:c3:7b:85:cb:70:47:66:d6:f5:99:
                    5f:df:5c:dc:ab:f2:d8:16:bb:87:2a:f8:cf:ac:c8:
                    b7:15:a9:15:20:08:b6:54:55:96:5c:7e:ac:0e:34:
                    01:b4:e1:92:dd:a5:6b:cd:56:15:15:37:13:59:a6:
                    0e:17:5c:34:70:a9:72:09:c9:75:d6:bf:98:64:76:
                    b5:32:5d:9c:8a:28:ea:25:07:29:52:1a:68:05:00:
                    0a:03
                Exponent: 65537 (0x10001)
        X509v3 extensions:
            X509v3 Basic Constraints: 
                CA:FALSE
            X509v3 Subject Key Identifier: 
                1B:09:59:2D:7D:D1:91:8F:B7:7D:32:7F:49:35:2E:A5:6E:77:9A:B8
            X509v3 Authority Key Identifier: 
                keyid:8B:20:EF:1E:79:AA:08:54:83:89:B6:B6:38:B0:FB:3E:78:16:A1:62
                DirName:/CN=Easy-RSA CA
                serial:79:7C:76:2B:CB:8E:27:F0:E7:73:9C:57:63:8C:36:CF:E6:78:3E:BD

            X509v3 Extended Key Usage: 
                TLS Web Client Authentication
            X509v3 Key Usage: 
                Digital Signature
    Signature Algorithm: sha256WithRSAEncryption
         7d:05:4a:c0:36:5d:d8:5c:26:56:62:6f:42:b7:07:65:99:ef:
         d3:79:14:2d:6f:0c:c5:f3:fb:b3:d9:fe:0f:92:a6:94:a6:2f:
         8f:f1:2c:84:8f:01:3c:f7:fc:a4:1f:45:8d:39:14:e5:5d:48:
         86:75:81:70:19:51:12:0d:22:69:65:9c:c0:88:45:69:51:17:
         0d:eb:e6:87:6d:a4:b6:e4:02:ca:cc:98:50:c2:77:ec:39:24:
         05:3b:76:b3:10:c6:a9:19:6f:b6:ca:9e:7f:96:df:98:fc:72:
         78:2a:76:bc:69:9a:72:fa:5e:01:8b:1d:dd:99:b8:3f:f6:da:
         6e:99:5b:46:1e:38:c8:00:12:0d:90:99:80:f8:af:e4:9d:42:
         6d:ce:96:f8:0a:fd:6c:91:d0:90:53:77:ac:63:6a:3f:6c:03:
         08:bc:c2:ad:8e:c1:bc:21:11:ec:98:1c:3f:49:2b:69:c9:1b:
         15:aa:4b:97:aa:2f:75:ac:4b:08:c7:19:1d:21:4a:b6:5f:6f:
         de:52:8d:8a:b3:0c:13:57:4f:d5:dc:c5:94:ae:1b:09:4f:fc:
         36:81:de:39:b9:69:5d:cb:f8:74:35:0c:23:8a:e7:ef:42:d9:
         f4:1b:73:17:3d:e1:69:e0:d4:d4:8a:13:2a:54:5c:88:86:f9:
         f3:be:c7:f9
-----BEGIN CERTIFICATE-----
MIIDVTCCAj2gAwIBAgIQM83wXpOQJ1au7Ui1p67JJzANBgkqhkiG9w0BAQsFADAW
MRQwEgYDVQQDDAtFYXN5LVJTQSBDQTAeFw0yMTA2MDExNTU5MDJaFw0yMzA5MDQx
NTU5MDJaMBIxEDAOBgNVBAMMB3dpbm1haW4wggEiMA0GCSqGSIb3DQEBAQUAA4IB
DwAwggEKAoIBAQCaJOXFJ84+A4/rEWfOzThoSBq/fMAK8oTBK1IcHKG7deMYSLym
xWVzcB1JD3/wKlPByedlbvk84bycJvmcco/kpsWsLlO2juK11fZpAaHElUGxgIzG
jdm1CVd2X+1ilUOnuqTeicbmpKy3kyYAMJ7SlvwmX30YZrZPPB2/JOQN4226JZtW
53NBPl6qvtSXKXYVUhIbrjpTmWubG0tkiu0LZzfHEvhXy1Q5w3uFy3BHZtb1mV/f
XNyr8tgWu4cq+M+syLcVqRUgCLZUVZZcfqwONAG04ZLdpWvNVhUVNxNZpg4XXDRw
qXIJyXXWv5hkdrUyXZyKKOolBylSGmgFAAoDAgMBAAGjgaIwgZ8wCQYDVR0TBAIw
ADAdBgNVHQ4EFgQUGwlZLX3RkY+3fTJ/STUupW53mrgwUQYDVR0jBEowSIAUiyDv
HnmqCFSDiba2OLD7PngWoWKhGqQYMBYxFDASBgNVBAMMC0Vhc3ktUlNBIENBghR5
fHYry44n8OdznFdjjDbP5ng+vTATBgNVHSUEDDAKBggrBgEFBQcDAjALBgNVHQ8E
BAMCB4AwDQYJKoZIhvcNAQELBQADggEBAH0FSsA2XdhcJlZib0K3B2WZ79N5FC1v
DMXz+7PZ/g+SppSmL4/xLISPATz3/KQfRY05FOVdSIZ1gXAZURINImllnMCIRWlR
Fw3r5odtpLbkAsrMmFDCd+w5JAU7drMQxqkZb7bKnn+W35j8cngqdrxpmnL6XgGL
Hd2ZuD/22m6ZW0YeOMgAEg2QmYD4r+SdQm3OlvgK/WyR0JBTd6xjaj9sAwi8wq2O
wbwhEeyYHD9JK2nJGxWqS5eqL3WsSwjHGR0hSrZfb95SjYqzDBNXT9XcxZSuGwlP
/DaB3jm5aV3L+HQ1DCOK5+9C2fQbcxc94Wng1NSKEypUXIiG+fO+x/k=
-----END CERTIFICATE-----
