Certificate:
    Data:
        Version: 3 (0x2)
        Serial Number:
            48:35:c0:2d:2d:7a:c4:d7:e6:f7:d4:81:3f:a6:95:aa
        Signature Algorithm: sha256WithRSAEncryption
        Issuer: CN=Easy-RSA CA
        Validity
            Not Before: Jun 11 12:26:59 2021 GMT
            Not After : Sep 14 12:26:59 2023 GMT
        Subject: CN=client1
        Subject Public Key Info:
            Public Key Algorithm: rsaEncryption
                RSA Public-Key: (2048 bit)
                Modulus:
                    00:aa:66:23:4f:a8:1e:57:c0:23:23:1d:31:71:38:
                    4e:87:66:cc:88:d6:6c:82:94:41:87:61:9b:76:a0:
                    d1:08:ec:a6:eb:f2:de:0c:32:ae:3a:1c:d1:1a:ff:
                    3c:bb:06:76:fd:fd:2f:c9:ec:7b:49:75:3a:bc:2a:
                    44:1d:92:6d:b3:a5:14:d6:c2:d9:57:b3:45:87:31:
                    3f:3a:f1:6f:65:69:48:a6:8f:8e:4d:76:b7:53:87:
                    9d:a3:9e:7e:b9:a1:80:ec:c4:ae:ec:fe:90:4c:08:
                    db:8e:0a:7e:3a:8e:bd:3d:2b:0e:2d:02:e2:f6:24:
                    e1:ca:06:72:7c:0d:cf:7c:8f:6e:4f:8f:66:07:2b:
                    6d:ad:20:27:66:10:67:55:89:4e:e6:01:5a:f5:f0:
                    6f:83:76:45:39:d0:73:bd:f2:b9:73:75:07:90:08:
                    0c:0e:ba:c2:8c:80:2b:be:59:60:05:05:9a:bf:88:
                    56:cc:41:2f:ff:ec:75:fe:47:86:e8:fd:5f:f6:d0:
                    a4:a1:8c:a9:8b:13:0a:a7:25:92:3f:10:a4:f0:48:
                    34:dc:80:88:6b:f7:48:6f:2d:af:bd:cb:3f:ed:23:
                    25:8d:8e:f6:bb:3a:48:8e:38:21:48:8f:c0:21:28:
                    f5:e3:1b:1b:c4:23:11:6f:60:92:90:31:7b:db:e0:
                    de:4d
                Exponent: 65537 (0x10001)
        X509v3 extensions:
            X509v3 Basic Constraints: 
                CA:FALSE
            X509v3 Subject Key Identifier: 
                3C:4A:E6:06:F8:EA:B9:D8:F4:F2:13:21:E2:70:39:86:52:D8:FC:C6
            X509v3 Authority Key Identifier: 
                keyid:4C:78:56:52:AD:F6:38:7D:B3:B6:E1:3B:6A:E7:92:2F:98:B6:7A:BF
                DirName:/CN=Easy-RSA CA
                serial:3C:AB:47:AE:F7:FA:E8:57:3F:94:6A:62:EC:1E:CC:8E:64:06:6E:92

            X509v3 Extended Key Usage: 
                TLS Web Client Authentication
            X509v3 Key Usage: 
                Digital Signature
    Signature Algorithm: sha256WithRSAEncryption
         27:10:86:13:f7:db:da:72:ff:10:da:96:05:24:f2:37:ba:cc:
         f0:bf:53:c7:51:13:4d:49:1c:f5:94:0b:3a:17:20:1d:fc:da:
         55:7d:f1:c0:5e:ae:4b:21:71:a8:38:35:45:e7:5b:cb:f0:6d:
         2b:b0:04:82:28:8f:4d:88:90:8a:c9:11:58:22:94:a7:2f:e7:
         fe:9f:41:41:33:2e:24:4f:b5:63:c0:f0:67:f9:d5:b2:cf:59:
         7e:c5:f1:a8:75:46:aa:dc:4c:27:5f:20:30:17:25:84:d1:a7:
         70:e0:ee:96:c9:71:6f:fc:f0:7b:5a:35:f9:92:82:33:a2:ec:
         74:78:97:65:e2:c1:cc:73:5e:be:70:7e:b3:49:8d:fa:86:75:
         53:ea:cb:c2:eb:eb:5d:7a:37:ef:82:45:67:7c:25:9e:b5:e7:
         ad:47:c7:47:b2:d4:3d:fd:27:d8:b6:14:80:50:48:63:79:e5:
         5c:19:60:24:f1:2f:1f:b3:c4:19:f0:e6:76:00:c2:3b:c8:f5:
         5a:d5:5e:c1:ba:aa:6f:a0:02:d7:7a:9b:37:13:93:c6:5b:c4:
         b7:4d:1e:1d:de:56:a5:37:ed:4e:ec:8a:04:78:54:75:94:a5:
         5f:4c:d5:d5:6f:9b:b1:f9:00:36:d9:c3:a8:8f:d0:b9:68:e8:
         cf:dd:d9:0a
-----BEGIN CERTIFICATE-----
MIIDVTCCAj2gAwIBAgIQSDXALS16xNfm99SBP6aVqjANBgkqhkiG9w0BAQsFADAW
MRQwEgYDVQQDDAtFYXN5LVJTQSBDQTAeFw0yMTA2MTExMjI2NTlaFw0yMzA5MTQx
MjI2NTlaMBIxEDAOBgNVBAMMB2NsaWVudDEwggEiMA0GCSqGSIb3DQEBAQUAA4IB
DwAwggEKAoIBAQCqZiNPqB5XwCMjHTFxOE6HZsyI1myClEGHYZt2oNEI7Kbr8t4M
Mq46HNEa/zy7Bnb9/S/J7HtJdTq8KkQdkm2zpRTWwtlXs0WHMT868W9laUimj45N
drdTh52jnn65oYDsxK7s/pBMCNuOCn46jr09Kw4tAuL2JOHKBnJ8Dc98j25Pj2YH
K22tICdmEGdViU7mAVr18G+DdkU50HO98rlzdQeQCAwOusKMgCu+WWAFBZq/iFbM
QS//7HX+R4bo/V/20KShjKmLEwqnJZI/EKTwSDTcgIhr90hvLa+9yz/tIyWNjva7
OkiOOCFIj8AhKPXjGxvEIxFvYJKQMXvb4N5NAgMBAAGjgaIwgZ8wCQYDVR0TBAIw
ADAdBgNVHQ4EFgQUPErmBvjqudj08hMh4nA5hlLY/MYwUQYDVR0jBEowSIAUTHhW
Uq32OH2ztuE7aueSL5i2er+hGqQYMBYxFDASBgNVBAMMC0Vhc3ktUlNBIENBghQ8
q0eu9/roVz+UamLsHsyOZAZukjATBgNVHSUEDDAKBggrBgEFBQcDAjALBgNVHQ8E
BAMCB4AwDQYJKoZIhvcNAQELBQADggEBACcQhhP329py/xDalgUk8je6zPC/U8dR
E01JHPWUCzoXIB382lV98cBerkshcag4NUXnW8vwbSuwBIIoj02IkIrJEVgilKcv
5/6fQUEzLiRPtWPA8Gf51bLPWX7F8ah1RqrcTCdfIDAXJYTRp3Dg7pbJcW/88Hta
NfmSgjOi7HR4l2XiwcxzXr5wfrNJjfqGdVPqy8Lr6116N++CRWd8JZ61561Hx0ey
1D39J9i2FIBQSGN55VwZYCTxLx+zxBnw5nYAwjvI9VrVXsG6qm+gAtd6mzcTk8Zb
xLdNHh3eVqU37U7sigR4VHWUpV9M1dVvm7H5ADbZw6iP0Llo6M/d2Qo=
-----END CERTIFICATE-----
