Certificate:
    Data:
        Version: 3 (0x2)
        Serial Number:
            59:54:34:d4:24:b8:67:a0:9b:fa:90:23:18:42:28:bd
        Signature Algorithm: sha256WithRSAEncryption
        Issuer: CN=Easy-RSA CA
        Validity
            Not Before: Aug 14 17:36:46 2021 GMT
            Not After : Nov 17 17:36:46 2023 GMT
        Subject: CN=torlocalred
        Subject Public Key Info:
            Public Key Algorithm: rsaEncryption
                RSA Public-Key: (2048 bit)
                Modulus:
                    00:f5:e7:71:26:56:98:22:84:43:d3:01:72:0e:66:
                    e1:ac:e8:8e:5c:59:70:6d:5d:c1:7d:2c:fe:a1:85:
                    57:c2:40:cc:5c:c8:5c:44:98:da:34:e0:5c:8a:36:
                    a7:c5:ad:85:2c:78:db:f2:f6:06:40:da:20:1c:e1:
                    71:8e:9b:24:3c:5a:24:74:ea:59:fc:ac:e4:fe:b0:
                    b1:56:3b:45:de:4d:9e:c7:c6:8c:78:e1:9b:c5:f6:
                    55:6a:90:c6:14:e2:29:2d:57:53:b8:f3:33:30:62:
                    a8:7d:42:31:90:e8:5e:22:ce:8d:b0:89:11:59:fd:
                    03:17:0b:99:44:fd:67:bb:28:40:b4:57:6e:b9:a9:
                    72:0e:a7:56:93:8b:93:43:28:14:8f:e7:cd:8f:2c:
                    6b:83:df:06:9d:f8:0f:ca:a2:68:e4:0a:60:4d:24:
                    00:33:92:15:a7:95:59:b9:3f:3b:30:52:70:58:4c:
                    8f:aa:42:a5:01:75:62:b8:ba:0c:f4:3a:3e:a2:a4:
                    8d:b9:e0:76:6a:b8:3e:1d:81:ff:2a:1f:c2:34:e1:
                    0c:71:e7:52:4f:44:cc:8a:73:4c:9e:b2:4b:6b:ae:
                    8e:22:55:2c:78:f3:d2:ed:a7:60:bc:1f:ad:0d:b9:
                    51:64:1b:b9:a7:91:e6:5b:57:00:c1:2a:4a:af:05:
                    86:85
                Exponent: 65537 (0x10001)
        X509v3 extensions:
            X509v3 Basic Constraints: 
                CA:FALSE
            X509v3 Subject Key Identifier: 
                17:B3:40:E8:91:C3:AA:4E:55:16:EC:45:C6:38:A4:87:E2:89:45:8D
            X509v3 Authority Key Identifier: 
                keyid:8B:20:EF:1E:79:AA:08:54:83:89:B6:B6:38:B0:FB:3E:78:16:A1:62
                DirName:/CN=Easy-RSA CA
                serial:79:7C:76:2B:CB:8E:27:F0:E7:73:9C:57:63:8C:36:CF:E6:78:3E:BD

            X509v3 Extended Key Usage: 
                TLS Web Client Authentication
            X509v3 Key Usage: 
                Digital Signature
    Signature Algorithm: sha256WithRSAEncryption
         88:8e:8c:38:d6:ff:d6:77:78:79:b8:eb:46:9b:ca:01:45:36:
         6d:ab:7a:2c:c8:9e:4d:c9:98:1b:e9:5d:e2:18:66:e2:72:8e:
         e0:30:8d:15:6b:04:ad:50:b8:6a:20:ed:10:93:e3:7f:7f:9f:
         b8:09:ec:65:f6:e1:ba:48:80:6a:30:a4:9c:60:f9:ad:1f:2b:
         13:35:51:3a:dd:12:6a:be:18:e5:72:f0:65:18:d7:22:ad:a2:
         d3:26:f3:ba:3b:9d:3f:b7:11:7c:19:a8:90:3f:85:37:c2:c6:
         7b:aa:4e:62:1b:22:f9:4f:ec:b1:f2:32:20:f0:22:76:73:e7:
         7d:81:f1:08:78:71:5d:81:e2:ae:23:a8:56:25:56:1b:96:95:
         41:96:b1:8c:36:61:c4:cc:6b:6e:4a:78:df:42:55:28:ae:93:
         16:d4:84:58:37:fd:a6:88:f1:41:34:c6:ec:09:e2:5c:9b:6d:
         67:3d:71:f7:ee:ba:b5:27:69:c9:20:34:39:a0:e2:81:ee:8b:
         8c:fa:46:a7:4d:c9:34:f6:5a:c2:44:ad:5b:b0:38:de:1f:0a:
         6c:97:54:d7:61:19:6c:a0:c2:ba:1b:ca:5f:c8:77:b8:3b:4b:
         b5:72:63:d9:83:1d:5b:00:27:ba:0f:23:2d:0b:47:96:5f:39:
         de:f5:f8:54
-----BEGIN CERTIFICATE-----
MIIDWTCCAkGgAwIBAgIQWVQ01CS4Z6Cb+pAjGEIovTANBgkqhkiG9w0BAQsFADAW
MRQwEgYDVQQDDAtFYXN5LVJTQSBDQTAeFw0yMTA4MTQxNzM2NDZaFw0yMzExMTcx
NzM2NDZaMBYxFDASBgNVBAMMC3RvcmxvY2FscmVkMIIBIjANBgkqhkiG9w0BAQEF
AAOCAQ8AMIIBCgKCAQEA9edxJlaYIoRD0wFyDmbhrOiOXFlwbV3BfSz+oYVXwkDM
XMhcRJjaNOBcijanxa2FLHjb8vYGQNogHOFxjpskPFokdOpZ/Kzk/rCxVjtF3k2e
x8aMeOGbxfZVapDGFOIpLVdTuPMzMGKofUIxkOheIs6NsIkRWf0DFwuZRP1nuyhA
tFduualyDqdWk4uTQygUj+fNjyxrg98GnfgPyqJo5ApgTSQAM5IVp5VZuT87MFJw
WEyPqkKlAXViuLoM9Do+oqSNueB2arg+HYH/Kh/CNOEMcedST0TMinNMnrJLa66O
IlUsePPS7adgvB+tDblRZBu5p5HmW1cAwSpKrwWGhQIDAQABo4GiMIGfMAkGA1Ud
EwQCMAAwHQYDVR0OBBYEFBezQOiRw6pOVRbsRcY4pIfiiUWNMFEGA1UdIwRKMEiA
FIsg7x55qghUg4m2tjiw+z54FqFioRqkGDAWMRQwEgYDVQQDDAtFYXN5LVJTQSBD
QYIUeXx2K8uOJ/Dnc5xXY4w2z+Z4Pr0wEwYDVR0lBAwwCgYIKwYBBQUHAwIwCwYD
VR0PBAQDAgeAMA0GCSqGSIb3DQEBCwUAA4IBAQCIjow41v/Wd3h5uOtGm8oBRTZt
q3osyJ5NyZgb6V3iGGbico7gMI0VawStULhqIO0Qk+N/f5+4Cexl9uG6SIBqMKSc
YPmtHysTNVE63RJqvhjlcvBlGNciraLTJvO6O50/txF8GaiQP4U3wsZ7qk5iGyL5
T+yx8jIg8CJ2c+d9gfEIeHFdgeKuI6hWJVYblpVBlrGMNmHEzGtuSnjfQlUorpMW
1IRYN/2miPFBNMbsCeJcm21nPXH37rq1J2nJIDQ5oOKB7ouM+kanTck09lrCRK1b
sDjeHwpsl1TXYRlsoMK6G8pfyHe4O0u1cmPZgx1bACe6DyMtC0eWXzne9fhU
-----END CERTIFICATE-----
