Certificate:
    Data:
        Version: 3 (0x2)
        Serial Number:
            b2:b8:34:8f:23:e7:52:71:fe:37:04:79:6f:73:fd:7b
        Signature Algorithm: sha256WithRSAEncryption
        Issuer: CN=Easy-RSA CA
        Validity
            Not Before: Aug 15 10:55:31 2021 GMT
            Not After : Nov 18 10:55:31 2023 GMT
        Subject: CN=clidev
        Subject Public Key Info:
            Public Key Algorithm: rsaEncryption
                RSA Public-Key: (2048 bit)
                Modulus:
                    00:c7:77:e0:2d:6b:77:2e:a7:60:f1:6f:21:7a:32:
                    45:73:1f:4d:27:b7:92:3f:ab:86:e5:36:70:9e:ec:
                    49:2f:9a:40:4f:5b:28:04:54:45:1c:bd:9e:66:12:
                    1e:5b:60:6c:34:78:e3:58:6a:e5:60:9e:93:89:b4:
                    40:25:94:94:b8:43:9d:54:fc:5d:71:bd:3d:62:b6:
                    13:54:81:9b:37:4d:7d:d4:ab:fa:00:7d:47:d0:d5:
                    ae:ad:cd:7a:aa:95:2d:b2:25:ce:1d:24:0f:f1:93:
                    db:e2:15:1d:42:10:9e:eb:89:a8:30:0a:39:27:19:
                    1b:ae:80:80:f8:39:6a:65:35:d7:b3:77:9e:80:06:
                    a2:e4:0f:2b:f6:46:aa:d6:73:59:a7:ae:ef:c1:27:
                    93:f1:4b:c8:aa:7e:00:e1:c8:28:1d:eb:2c:37:2e:
                    31:ba:e3:8b:89:7c:d3:b7:5b:22:3e:42:79:64:61:
                    c1:2e:4d:9f:60:66:18:01:04:31:47:e2:e8:62:e0:
                    12:d9:50:3a:ea:da:f8:9e:b5:0d:9b:14:71:8e:56:
                    16:75:d4:a9:20:1d:92:a0:d4:71:eb:6b:71:2a:9c:
                    23:59:1f:b4:8d:f3:75:bd:93:bc:f6:7c:a4:1b:6c:
                    a9:1c:83:37:57:b2:4a:fc:cc:d4:a8:b6:a8:e4:13:
                    97:f5
                Exponent: 65537 (0x10001)
        X509v3 extensions:
            X509v3 Basic Constraints: 
                CA:FALSE
            X509v3 Subject Key Identifier: 
                94:3B:B1:FE:1A:5F:C7:93:6E:24:DB:F1:D8:D5:74:0E:F8:77:D3:05
            X509v3 Authority Key Identifier: 
                keyid:8B:20:EF:1E:79:AA:08:54:83:89:B6:B6:38:B0:FB:3E:78:16:A1:62
                DirName:/CN=Easy-RSA CA
                serial:79:7C:76:2B:CB:8E:27:F0:E7:73:9C:57:63:8C:36:CF:E6:78:3E:BD

            X509v3 Extended Key Usage: 
                TLS Web Client Authentication
            X509v3 Key Usage: 
                Digital Signature
    Signature Algorithm: sha256WithRSAEncryption
         22:a0:29:1b:b2:68:82:96:3c:1c:f2:ae:de:a0:8f:08:6b:74:
         b3:93:f5:6c:01:92:7f:01:f9:ce:1d:95:3b:cd:60:04:99:e1:
         33:64:5d:6a:1c:ce:c6:07:0d:5b:98:5b:48:3d:5f:4d:5c:e6:
         ab:8c:bf:91:e3:59:49:b8:02:9e:31:1a:1e:60:3d:8e:d4:12:
         c1:17:e3:6f:6a:bf:df:0c:5a:e2:03:dc:5d:e2:f4:95:79:b7:
         28:87:b4:16:64:37:dc:19:70:b3:1b:e4:14:d2:bc:64:20:c6:
         7b:db:8a:2a:ea:04:3b:b5:3e:4a:c8:fc:77:6b:2a:05:4d:c3:
         41:be:89:7b:35:db:45:6c:6a:01:64:45:2c:36:42:05:b0:21:
         61:08:5a:27:26:b4:b0:c1:23:a0:54:6d:72:93:aa:2c:6f:f0:
         04:8c:75:50:6f:40:0f:0f:0c:02:db:c9:27:f1:0e:85:a0:f9:
         19:f9:01:3f:31:b8:7d:cc:81:16:93:d2:9a:ce:d6:f8:fb:4a:
         97:51:dd:8f:b6:95:b6:d5:a4:13:03:8c:ec:5f:fd:df:dc:89:
         1a:25:c6:a5:13:61:5f:ed:61:77:d4:61:4d:b2:fa:3e:54:85:
         bc:5f:60:3b:ad:f3:57:60:7b:af:75:cc:e5:64:95:3c:0f:d8:
         f9:50:e6:77
-----BEGIN CERTIFICATE-----
MIIDVTCCAj2gAwIBAgIRALK4NI8j51Jx/jcEeW9z/XswDQYJKoZIhvcNAQELBQAw
FjEUMBIGA1UEAwwLRWFzeS1SU0EgQ0EwHhcNMjEwODE1MTA1NTMxWhcNMjMxMTE4
MTA1NTMxWjARMQ8wDQYDVQQDDAZjbGlkZXYwggEiMA0GCSqGSIb3DQEBAQUAA4IB
DwAwggEKAoIBAQDHd+Ata3cup2DxbyF6MkVzH00nt5I/q4blNnCe7EkvmkBPWygE
VEUcvZ5mEh5bYGw0eONYauVgnpOJtEAllJS4Q51U/F1xvT1ithNUgZs3TX3Uq/oA
fUfQ1a6tzXqqlS2yJc4dJA/xk9viFR1CEJ7riagwCjknGRuugID4OWplNdezd56A
BqLkDyv2RqrWc1mnru/BJ5PxS8iqfgDhyCgd6yw3LjG644uJfNO3WyI+QnlkYcEu
TZ9gZhgBBDFH4uhi4BLZUDrq2vietQ2bFHGOVhZ11KkgHZKg1HHra3EqnCNZH7SN
83W9k7z2fKQbbKkcgzdXskr8zNSotqjkE5f1AgMBAAGjgaIwgZ8wCQYDVR0TBAIw
ADAdBgNVHQ4EFgQUlDux/hpfx5NuJNvx2NV0Dvh30wUwUQYDVR0jBEowSIAUiyDv
HnmqCFSDiba2OLD7PngWoWKhGqQYMBYxFDASBgNVBAMMC0Vhc3ktUlNBIENBghR5
fHYry44n8OdznFdjjDbP5ng+vTATBgNVHSUEDDAKBggrBgEFBQcDAjALBgNVHQ8E
BAMCB4AwDQYJKoZIhvcNAQELBQADggEBACKgKRuyaIKWPBzyrt6gjwhrdLOT9WwB
kn8B+c4dlTvNYASZ4TNkXWoczsYHDVuYW0g9X01c5quMv5HjWUm4Ap4xGh5gPY7U
EsEX429qv98MWuID3F3i9JV5tyiHtBZkN9wZcLMb5BTSvGQgxnvbiirqBDu1PkrI
/HdrKgVNw0G+iXs120VsagFkRSw2QgWwIWEIWicmtLDBI6BUbXKTqixv8ASMdVBv
QA8PDALbySfxDoWg+Rn5AT8xuH3MgRaT0prO1vj7SpdR3Y+2lbbVpBMDjOxf/d/c
iRolxqUTYV/tYXfUYU2y+j5UhbxfYDut81dge691zOVklTwP2PlQ5nc=
-----END CERTIFICATE-----
