Certificate:
    Data:
        Version: 3 (0x2)
        Serial Number:
            bd:68:7a:4b:13:78:b0:2a:c0:8c:8e:6e:2c:13:f9:2e
        Signature Algorithm: sha256WithRSAEncryption
        Issuer: CN=Easy-RSA CA
        Validity
            Not Before: May 29 02:58:23 2021 GMT
            Not After : Sep  1 02:58:23 2023 GMT
        Subject: CN=client9
        Subject Public Key Info:
            Public Key Algorithm: rsaEncryption
                RSA Public-Key: (2048 bit)
                Modulus:
                    00:c1:79:08:34:19:42:da:63:8f:7b:14:5f:53:ba:
                    9d:2f:64:30:a7:91:94:3e:ab:50:30:0a:5c:19:5f:
                    12:16:83:64:7b:74:41:e9:e1:31:d8:e8:15:2e:e3:
                    33:a4:4b:23:0d:59:eb:2f:b8:62:43:ca:64:9b:82:
                    61:1d:1e:79:9e:38:1d:63:ba:71:d9:bd:d7:4a:5f:
                    01:b3:a1:85:f8:1b:c9:94:95:3c:61:2f:9a:fc:62:
                    6e:89:32:cb:0e:17:8a:8d:e7:0a:4e:7b:f4:bf:c5:
                    50:e3:0c:b8:cd:65:b2:c7:84:dc:4b:ef:25:53:c7:
                    04:9c:66:00:65:cd:c9:a2:2b:84:0a:b5:16:a5:4b:
                    88:c2:40:2a:96:a7:08:de:5b:71:70:4c:e9:0b:0b:
                    3a:70:fd:68:5b:9b:de:50:7a:86:7b:d3:c7:15:1a:
                    60:f3:2b:86:7c:5f:1a:a9:a4:84:d4:21:b1:7a:96:
                    42:18:3b:05:0a:0e:d8:92:7b:52:df:5c:dd:33:21:
                    fe:60:84:f1:8f:35:55:8b:2c:bb:6d:dd:09:d9:7a:
                    f4:0f:1c:ed:38:a6:64:38:75:c2:54:d9:3f:00:7c:
                    5f:3a:3e:b3:92:42:37:e2:30:16:97:b6:33:dd:de:
                    71:6c:11:6b:a2:c7:d8:f0:ca:33:66:48:58:ef:75:
                    95:75
                Exponent: 65537 (0x10001)
        X509v3 extensions:
            X509v3 Basic Constraints: 
                CA:FALSE
            X509v3 Subject Key Identifier: 
                08:E5:01:DC:EE:B7:DD:D3:72:9C:A8:8F:10:34:B6:0E:5D:20:AC:78
            X509v3 Authority Key Identifier: 
                keyid:8B:20:EF:1E:79:AA:08:54:83:89:B6:B6:38:B0:FB:3E:78:16:A1:62
                DirName:/CN=Easy-RSA CA
                serial:79:7C:76:2B:CB:8E:27:F0:E7:73:9C:57:63:8C:36:CF:E6:78:3E:BD

            X509v3 Extended Key Usage: 
                TLS Web Client Authentication
            X509v3 Key Usage: 
                Digital Signature
    Signature Algorithm: sha256WithRSAEncryption
         4e:c2:2e:61:2a:14:96:52:11:d6:f4:39:91:9c:5f:c8:50:3e:
         4b:2d:4f:14:fd:ec:83:05:0c:e2:15:67:56:66:46:50:59:11:
         48:e7:54:69:2a:77:0e:51:bf:72:c3:8b:36:62:e8:a5:31:f5:
         ca:3a:e9:c1:db:85:a6:d7:f1:b0:e1:27:ba:7a:cb:7c:e8:ca:
         7b:46:4a:28:e2:c9:06:6b:33:11:86:81:9d:54:e6:2a:f8:be:
         e9:7d:32:e4:99:c0:14:39:5a:9e:d9:ca:bc:fe:cc:4c:a9:6e:
         3d:35:cb:bb:1a:ee:db:59:9c:d1:fd:a1:21:54:44:19:c3:34:
         9b:41:ed:ac:85:97:40:64:7f:73:43:56:8a:3b:d1:f3:56:4f:
         af:b9:ce:7b:77:e0:1c:a6:54:bd:fd:fb:ce:6f:41:a0:7a:5e:
         dc:a2:69:15:62:97:f4:d2:fe:ee:15:d5:35:b3:58:e7:78:c5:
         89:73:84:9f:11:91:ea:22:61:5f:fc:a9:4a:ce:55:0f:33:42:
         84:eb:4f:11:f0:a5:bf:b1:6c:85:8a:ef:c7:5d:52:60:02:a6:
         fc:30:d8:6e:b2:f2:e2:16:b9:83:9f:65:32:2f:c6:a0:2f:33:
         6b:ec:22:c4:3e:07:de:97:c0:9e:e2:c8:75:c7:51:f3:05:2b:
         27:a9:09:23
-----BEGIN CERTIFICATE-----
MIIDVjCCAj6gAwIBAgIRAL1oeksTeLAqwIyObiwT+S4wDQYJKoZIhvcNAQELBQAw
FjEUMBIGA1UEAwwLRWFzeS1SU0EgQ0EwHhcNMjEwNTI5MDI1ODIzWhcNMjMwOTAx
MDI1ODIzWjASMRAwDgYDVQQDDAdjbGllbnQ5MIIBIjANBgkqhkiG9w0BAQEFAAOC
AQ8AMIIBCgKCAQEAwXkINBlC2mOPexRfU7qdL2Qwp5GUPqtQMApcGV8SFoNke3RB
6eEx2OgVLuMzpEsjDVnrL7hiQ8pkm4JhHR55njgdY7px2b3XSl8Bs6GF+BvJlJU8
YS+a/GJuiTLLDheKjecKTnv0v8VQ4wy4zWWyx4TcS+8lU8cEnGYAZc3JoiuECrUW
pUuIwkAqlqcI3ltxcEzpCws6cP1oW5veUHqGe9PHFRpg8yuGfF8aqaSE1CGxepZC
GDsFCg7YkntS31zdMyH+YITxjzVViyy7bd0J2Xr0DxztOKZkOHXCVNk/AHxfOj6z
kkI34jAWl7Yz3d5xbBFrosfY8MozZkhY73WVdQIDAQABo4GiMIGfMAkGA1UdEwQC
MAAwHQYDVR0OBBYEFAjlAdzut93TcpyojxA0tg5dIKx4MFEGA1UdIwRKMEiAFIsg
7x55qghUg4m2tjiw+z54FqFioRqkGDAWMRQwEgYDVQQDDAtFYXN5LVJTQSBDQYIU
eXx2K8uOJ/Dnc5xXY4w2z+Z4Pr0wEwYDVR0lBAwwCgYIKwYBBQUHAwIwCwYDVR0P
BAQDAgeAMA0GCSqGSIb3DQEBCwUAA4IBAQBOwi5hKhSWUhHW9DmRnF/IUD5LLU8U
/eyDBQziFWdWZkZQWRFI51RpKncOUb9yw4s2YuilMfXKOunB24Wm1/Gw4Se6est8
6Mp7Rkoo4skGazMRhoGdVOYq+L7pfTLkmcAUOVqe2cq8/sxMqW49Ncu7Gu7bWZzR
/aEhVEQZwzSbQe2shZdAZH9zQ1aKO9HzVk+vuc57d+AcplS9/fvOb0Ggel7comkV
Ypf00v7uFdU1s1jneMWJc4SfEZHqImFf/KlKzlUPM0KE608R8KW/sWyFiu/HXVJg
Aqb8MNhusvLiFrmDn2UyL8agLzNr7CLEPgfel8Ce4sh1x1HzBSsnqQkj
-----END CERTIFICATE-----
