Certificate:
    Data:
        Version: 3 (0x2)
        Serial Number:
            bc:c9:b9:a4:44:2a:81:0a:7b:7c:d6:9f:0b:77:34:70
        Signature Algorithm: sha256WithRSAEncryption
        Issuer: CN=Easy-RSA CA
        Validity
            Not Before: Aug 14 13:38:24 2021 GMT
            Not After : Nov 17 13:38:24 2023 GMT
        Subject: CN=clash_a
        Subject Public Key Info:
            Public Key Algorithm: rsaEncryption
                RSA Public-Key: (2048 bit)
                Modulus:
                    00:9a:56:07:0f:17:6a:94:6b:7c:7b:5d:51:70:8b:
                    00:48:2f:95:8d:df:65:ab:53:28:92:39:07:98:05:
                    c2:a1:93:4f:66:4e:4e:87:51:30:75:f3:aa:44:79:
                    34:71:f7:e3:56:5e:ad:79:06:68:db:5f:9b:a9:0b:
                    5a:c4:07:99:70:cb:61:fd:0e:51:55:61:e6:89:84:
                    02:21:d8:97:82:ec:cd:a1:db:32:dc:cc:0e:88:32:
                    9c:47:ae:5b:86:c7:ae:c1:18:47:9c:e8:57:28:23:
                    0b:6a:cb:48:0d:be:87:b2:18:88:11:dd:c6:ee:a4:
                    a4:d2:fa:fb:f6:b5:ce:5b:e2:56:2f:c6:e1:83:79:
                    d7:86:7e:af:07:d6:dd:53:56:45:99:40:a2:f6:e0:
                    a9:5c:80:1d:78:5e:c9:dc:fc:92:50:e3:dd:dc:0d:
                    e3:93:7b:17:af:64:f0:4d:ba:a7:cf:ba:e2:3e:44:
                    76:95:e6:9a:5c:6c:2d:f0:4f:38:e9:f1:93:1f:d6:
                    80:5b:da:01:9b:47:8c:ec:fe:62:4c:20:55:0e:b3:
                    a6:95:18:f6:15:8a:46:e5:58:a4:28:52:7d:17:a0:
                    c0:ac:f5:73:45:8a:41:1a:9d:d8:6c:c8:fe:12:93:
                    f4:7b:9e:f7:df:04:f4:90:c1:79:e8:c1:ce:00:b0:
                    f1:e7
                Exponent: 65537 (0x10001)
        X509v3 extensions:
            X509v3 Basic Constraints: 
                CA:FALSE
            X509v3 Subject Key Identifier: 
                B9:6F:0A:17:87:DD:54:73:E6:AD:24:F9:06:FA:44:B0:73:4B:3D:87
            X509v3 Authority Key Identifier: 
                keyid:8B:20:EF:1E:79:AA:08:54:83:89:B6:B6:38:B0:FB:3E:78:16:A1:62
                DirName:/CN=Easy-RSA CA
                serial:79:7C:76:2B:CB:8E:27:F0:E7:73:9C:57:63:8C:36:CF:E6:78:3E:BD

            X509v3 Extended Key Usage: 
                TLS Web Client Authentication
            X509v3 Key Usage: 
                Digital Signature
    Signature Algorithm: sha256WithRSAEncryption
         97:f9:be:59:91:69:e0:fe:ef:da:f0:60:ba:72:87:1b:0a:49:
         24:ea:47:6b:8b:ac:c8:d1:9f:fa:7b:e3:50:ac:b2:00:d2:f8:
         f5:da:de:9c:35:f9:38:bc:6b:1c:b7:65:0f:b0:91:c3:11:3d:
         7c:a4:05:ef:7c:1f:4e:ed:58:b0:2b:08:b6:a1:12:4f:70:98:
         2e:a0:f2:70:76:b7:15:71:22:e1:10:91:a3:c0:87:2a:4b:c0:
         0e:59:a2:eb:82:85:46:1e:39:1b:bf:40:67:15:bf:0e:7d:c6:
         11:26:7a:2c:11:54:3b:32:ad:0c:b4:32:98:ef:0f:ed:78:0a:
         0e:d4:e9:a1:c3:9e:89:5b:34:f4:ef:80:47:df:05:2e:ce:a7:
         e4:89:8f:40:33:ec:d6:1c:e4:27:21:2a:e4:9b:50:12:ec:17:
         29:90:24:55:73:3e:60:3b:16:22:89:8b:1c:15:9b:9f:54:2b:
         8f:32:70:9d:9f:1d:ed:10:e5:99:10:09:e0:ef:ab:54:37:65:
         dd:d3:9c:ab:99:65:ff:bd:83:88:d6:9a:b1:58:ca:41:61:6c:
         53:19:cf:c9:58:0b:42:3a:a5:fa:fc:1a:7c:d8:93:08:be:d2:
         f7:f3:c1:87:aa:0b:95:c3:ea:db:47:ca:62:cb:3e:31:66:9c:
         53:d3:c0:67
-----BEGIN CERTIFICATE-----
MIIDVjCCAj6gAwIBAgIRALzJuaREKoEKe3zWnwt3NHAwDQYJKoZIhvcNAQELBQAw
FjEUMBIGA1UEAwwLRWFzeS1SU0EgQ0EwHhcNMjEwODE0MTMzODI0WhcNMjMxMTE3
MTMzODI0WjASMRAwDgYDVQQDDAdjbGFzaF9hMIIBIjANBgkqhkiG9w0BAQEFAAOC
AQ8AMIIBCgKCAQEAmlYHDxdqlGt8e11RcIsASC+Vjd9lq1MokjkHmAXCoZNPZk5O
h1EwdfOqRHk0cffjVl6teQZo21+bqQtaxAeZcMth/Q5RVWHmiYQCIdiXguzNodsy
3MwOiDKcR65bhseuwRhHnOhXKCMLastIDb6HshiIEd3G7qSk0vr79rXOW+JWL8bh
g3nXhn6vB9bdU1ZFmUCi9uCpXIAdeF7J3PySUOPd3A3jk3sXr2TwTbqnz7riPkR2
leaaXGwt8E846fGTH9aAW9oBm0eM7P5iTCBVDrOmlRj2FYpG5VikKFJ9F6DArPVz
RYpBGp3YbMj+EpP0e5733wT0kMF56MHOALDx5wIDAQABo4GiMIGfMAkGA1UdEwQC
MAAwHQYDVR0OBBYEFLlvCheH3VRz5q0k+Qb6RLBzSz2HMFEGA1UdIwRKMEiAFIsg
7x55qghUg4m2tjiw+z54FqFioRqkGDAWMRQwEgYDVQQDDAtFYXN5LVJTQSBDQYIU
eXx2K8uOJ/Dnc5xXY4w2z+Z4Pr0wEwYDVR0lBAwwCgYIKwYBBQUHAwIwCwYDVR0P
BAQDAgeAMA0GCSqGSIb3DQEBCwUAA4IBAQCX+b5ZkWng/u/a8GC6cocbCkkk6kdr
i6zI0Z/6e+NQrLIA0vj12t6cNfk4vGsct2UPsJHDET18pAXvfB9O7ViwKwi2oRJP
cJguoPJwdrcVcSLhEJGjwIcqS8AOWaLrgoVGHjkbv0BnFb8OfcYRJnosEVQ7Mq0M
tDKY7w/teAoO1Omhw56JWzT074BH3wUuzqfkiY9AM+zWHOQnISrkm1AS7BcpkCRV
cz5gOxYiiYscFZufVCuPMnCdnx3tEOWZEAng76tUN2Xd05yrmWX/vYOI1pqxWMpB
YWxTGc/JWAtCOqX6/Bp82JMIvtL388GHqguVw+rbR8piyz4xZpxT08Bn
-----END CERTIFICATE-----
