Certificate:
    Data:
        Version: 3 (0x2)
        Serial Number:
            fd:df:5a:4f:7d:c5:bf:3b:60:a0:e9:9f:7f:af:e4:04
        Signature Algorithm: sha256WithRSAEncryption
        Issuer: CN=Easy-RSA CA
        Validity
            Not Before: Jun 11 12:26:13 2021 GMT
            Not After : Sep 14 12:26:13 2023 GMT
        Subject: CN=VPN.SERVERNAME.COM
        Subject Public Key Info:
            Public Key Algorithm: rsaEncryption
                RSA Public-Key: (2048 bit)
                Modulus:
                    00:c8:42:96:54:00:08:3b:99:84:ee:d1:3d:67:f7:
                    8a:36:db:9e:05:90:71:6d:4f:03:72:4f:70:a5:f8:
                    5e:b2:d8:9a:62:b7:2d:be:50:5a:cb:31:96:4d:c6:
                    4d:ea:e2:55:28:8b:c7:be:12:f4:2f:41:27:30:72:
                    24:69:be:aa:fc:0f:ae:36:dc:bf:38:d1:e3:35:1a:
                    c1:8f:ed:f3:da:c6:ae:b1:ee:a7:fe:41:d1:d4:c0:
                    17:dd:7f:d7:83:2f:db:f7:f5:64:b3:97:77:18:98:
                    38:a1:2a:8a:f6:f7:b0:f3:7b:f3:bd:5e:8a:46:7d:
                    2f:c3:c8:1c:f5:db:52:3f:14:38:eb:2e:51:7a:59:
                    41:a3:02:e5:e5:6c:8b:11:91:da:87:5d:0e:52:6f:
                    73:5f:0d:fb:61:49:f5:19:cc:34:85:cf:e3:26:9c:
                    3a:00:ff:a1:da:ff:a2:d5:cb:7c:95:3a:4d:f6:16:
                    bb:f2:4c:16:64:d5:8f:4d:72:59:96:66:03:ff:65:
                    0e:56:4a:f4:c5:ba:75:fe:58:88:fe:ff:69:06:8e:
                    62:54:78:06:5a:58:b5:e4:9d:ee:95:2c:ff:4c:e2:
                    73:db:37:1a:63:c9:08:5d:71:ed:37:17:9d:fc:8c:
                    f3:34:f5:47:9e:fd:79:51:22:3d:44:bf:e8:1b:9f:
                    75:73
                Exponent: 65537 (0x10001)
        X509v3 extensions:
            X509v3 Basic Constraints: 
                CA:FALSE
            X509v3 Subject Key Identifier: 
                28:90:8A:AC:1E:C1:28:2F:E3:D4:C0:DC:86:EE:C1:F6:B4:F8:A9:9B
            X509v3 Authority Key Identifier: 
                keyid:4C:78:56:52:AD:F6:38:7D:B3:B6:E1:3B:6A:E7:92:2F:98:B6:7A:BF
                DirName:/CN=Easy-RSA CA
                serial:3C:AB:47:AE:F7:FA:E8:57:3F:94:6A:62:EC:1E:CC:8E:64:06:6E:92

            X509v3 Extended Key Usage: 
                TLS Web Server Authentication
            X509v3 Key Usage: 
                Digital Signature, Key Encipherment
            X509v3 Subject Alternative Name: 
                DNS:VPN.SERVERNAME.COM
    Signature Algorithm: sha256WithRSAEncryption
         7d:4c:95:92:c7:61:92:b0:6d:0f:83:b7:ab:c0:f8:c0:56:53:
         b4:93:00:6c:91:f5:20:03:0e:7e:70:d2:79:b2:1a:d3:17:13:
         a4:61:d6:20:9d:97:48:27:3a:7e:07:fc:7a:df:55:30:0a:c5:
         6f:6e:42:78:8b:81:e9:f2:a4:2b:14:68:7f:b0:d1:b3:e9:fe:
         ce:d7:29:02:5a:54:57:91:3e:26:41:85:b4:d3:9d:0e:03:5b:
         06:a0:a0:81:f3:c7:04:5d:87:59:14:2d:7a:12:c1:17:a9:98:
         03:67:4b:85:29:2c:0c:2c:30:95:63:3d:8a:2f:09:16:85:f0:
         81:e7:8f:5a:2f:e6:e2:d9:9d:c3:52:9f:ec:9c:00:2a:09:5c:
         27:6d:b8:1e:93:02:1d:0f:ea:68:a0:37:70:64:68:5a:71:98:
         1c:6b:10:60:06:05:d6:12:2f:d2:ef:34:65:28:9f:1f:95:40:
         bc:c9:63:46:10:0e:86:d4:87:37:3b:f8:5d:fb:71:d1:81:3d:
         fc:9b:80:96:55:73:cb:2d:a5:2b:89:e0:95:64:91:da:79:e1:
         f4:4b:36:9d:20:4a:a7:b3:41:31:ca:b6:76:3f:54:ba:5e:a5:
         ca:52:1e:f0:42:74:27:ff:ca:25:f8:d1:75:25:78:eb:58:cd:
         6d:a4:17:48
-----BEGIN CERTIFICATE-----
MIIDgDCCAmigAwIBAgIRAP3fWk99xb87YKDpn3+v5AQwDQYJKoZIhvcNAQELBQAw
FjEUMBIGA1UEAwwLRWFzeS1SU0EgQ0EwHhcNMjEwNjExMTIyNjEzWhcNMjMwOTE0
MTIyNjEzWjAdMRswGQYDVQQDDBJWUE4uU0VSVkVSTkFNRS5DT00wggEiMA0GCSqG
SIb3DQEBAQUAA4IBDwAwggEKAoIBAQDIQpZUAAg7mYTu0T1n94o2254FkHFtTwNy
T3Cl+F6y2Jpity2+UFrLMZZNxk3q4lUoi8e+EvQvQScwciRpvqr8D6423L840eM1
GsGP7fPaxq6x7qf+QdHUwBfdf9eDL9v39WSzl3cYmDihKor297Dze/O9XopGfS/D
yBz121I/FDjrLlF6WUGjAuXlbIsRkdqHXQ5Sb3NfDfthSfUZzDSFz+MmnDoA/6Ha
/6LVy3yVOk32FrvyTBZk1Y9NclmWZgP/ZQ5WSvTFunX+WIj+/2kGjmJUeAZaWLXk
ne6VLP9M4nPbNxpjyQhdce03F538jPM09Uee/XlRIj1Ev+gbn3VzAgMBAAGjgcEw
gb4wCQYDVR0TBAIwADAdBgNVHQ4EFgQUKJCKrB7BKC/j1MDchu7B9rT4qZswUQYD
VR0jBEowSIAUTHhWUq32OH2ztuE7aueSL5i2er+hGqQYMBYxFDASBgNVBAMMC0Vh
c3ktUlNBIENBghQ8q0eu9/roVz+UamLsHsyOZAZukjATBgNVHSUEDDAKBggrBgEF
BQcDATALBgNVHQ8EBAMCBaAwHQYDVR0RBBYwFIISVlBOLlNFUlZFUk5BTUUuQ09N
MA0GCSqGSIb3DQEBCwUAA4IBAQB9TJWSx2GSsG0Pg7erwPjAVlO0kwBskfUgAw5+
cNJ5shrTFxOkYdYgnZdIJzp+B/x631UwCsVvbkJ4i4Hp8qQrFGh/sNGz6f7O1ykC
WlRXkT4mQYW0050OA1sGoKCB88cEXYdZFC16EsEXqZgDZ0uFKSwMLDCVYz2KLwkW
hfCB549aL+bi2Z3DUp/snAAqCVwnbbgekwIdD+pooDdwZGhacZgcaxBgBgXWEi/S
7zRlKJ8flUC8yWNGEA6G1Ic3O/hd+3HRgT38m4CWVXPLLaUrieCVZJHaeeH0Szad
IEqns0ExyrZ2P1S6XqXKUh7wQnQn/8ol+NF1JXjrWM1tpBdI
-----END CERTIFICATE-----
