Certificate:
    Data:
        Version: 3 (0x2)
        Serial Number:
            57:45:1e:b2:13:8a:45:72:df:95:43:38:a7:e3:1c:5b
        Signature Algorithm: sha256WithRSAEncryption
        Issuer: CN=Easy-RSA CA
        Validity
            Not Before: May 29 02:58:11 2021 GMT
            Not After : Sep  1 02:58:11 2023 GMT
        Subject: CN=client8
        Subject Public Key Info:
            Public Key Algorithm: rsaEncryption
                RSA Public-Key: (2048 bit)
                Modulus:
                    00:c6:4f:cf:43:94:29:3a:95:8d:3d:ba:b1:b5:ae:
                    3e:b4:71:ef:f9:39:5b:db:a4:7d:c9:d3:00:8e:14:
                    f4:65:dd:12:08:96:09:f7:5d:20:11:b3:5c:39:37:
                    d4:25:e3:11:3a:12:65:cb:ef:5b:7e:c7:72:dd:3f:
                    c7:ca:14:49:b5:1c:0a:01:50:c7:d2:2a:9d:5c:2d:
                    41:5e:96:bb:3b:5a:2b:d2:d9:26:8a:21:e7:65:4f:
                    9e:2d:40:7b:a9:f9:60:fb:25:ad:ac:03:21:1c:4c:
                    96:86:38:95:75:6d:22:05:de:a4:df:b6:ef:3c:f2:
                    d6:28:d2:75:b8:7c:48:fe:1c:b6:f2:40:d9:60:c5:
                    33:62:9d:a8:88:e3:80:96:4c:6c:9e:81:8c:98:e8:
                    09:07:69:d1:6b:71:19:f9:72:13:90:c6:89:d6:3b:
                    51:40:65:c1:54:30:9f:67:fd:1e:c1:31:38:a6:df:
                    79:87:df:32:0b:8b:a8:96:98:57:24:61:e3:59:a9:
                    20:51:91:d8:5d:71:fd:79:d9:8c:b9:07:4f:76:5d:
                    a6:d4:22:6d:b9:35:c2:b5:6b:b3:0a:8c:af:f0:9c:
                    5d:0a:5a:1f:3b:83:93:1a:9c:90:26:97:88:7a:83:
                    23:9c:5b:32:57:f0:c3:0e:07:ca:58:82:1f:3a:86:
                    c6:47
                Exponent: 65537 (0x10001)
        X509v3 extensions:
            X509v3 Basic Constraints: 
                CA:FALSE
            X509v3 Subject Key Identifier: 
                06:9C:99:3B:5D:03:C8:93:3D:6B:43:6A:C2:C3:F1:70:8F:69:2E:D8
            X509v3 Authority Key Identifier: 
                keyid:8B:20:EF:1E:79:AA:08:54:83:89:B6:B6:38:B0:FB:3E:78:16:A1:62
                DirName:/CN=Easy-RSA CA
                serial:79:7C:76:2B:CB:8E:27:F0:E7:73:9C:57:63:8C:36:CF:E6:78:3E:BD

            X509v3 Extended Key Usage: 
                TLS Web Client Authentication
            X509v3 Key Usage: 
                Digital Signature
    Signature Algorithm: sha256WithRSAEncryption
         19:cd:55:0d:5a:af:d6:3a:28:04:ba:69:79:df:9f:1a:c8:e5:
         b6:9d:e1:13:45:bf:1b:0c:df:8d:e0:8d:65:a6:2f:23:53:9e:
         01:31:a3:f5:e8:39:cd:65:7b:d4:b8:a4:91:af:71:aa:a9:b1:
         96:2c:e0:e9:2b:86:b4:ea:cd:5b:22:f1:ab:c6:67:b6:07:84:
         ed:34:cf:ae:63:df:e4:04:f3:69:5f:ae:08:f5:6d:bf:81:8b:
         63:ac:1a:08:70:4b:a5:7a:c5:d4:cc:c1:bd:c5:af:84:5c:77:
         c6:19:bd:3b:c0:b8:89:3d:e6:87:29:f1:16:c2:8f:f4:e1:bc:
         7f:53:77:1b:22:09:0c:3a:0b:ad:d2:0d:91:c2:bd:ff:c3:d9:
         ac:e8:4d:fc:c4:4c:7b:7a:55:15:e5:ee:28:3c:2a:ed:4b:ec:
         3f:c6:cb:66:91:67:2f:c3:35:0a:2d:1a:4f:d5:ec:83:c6:56:
         5e:ee:63:f0:96:7b:34:04:10:87:d2:74:e4:93:28:56:d0:17:
         e3:1b:e8:fe:55:3c:57:77:c7:2b:e9:15:ec:a5:56:3a:c0:2f:
         6e:e3:b8:3a:3b:c4:7e:c2:83:d5:e3:cf:51:57:ce:10:94:ed:
         75:69:5d:c4:f8:d1:4a:da:04:f0:0d:ad:39:c5:ac:31:58:7c:
         53:a6:21:bc
-----BEGIN CERTIFICATE-----
MIIDVTCCAj2gAwIBAgIQV0UeshOKRXLflUM4p+McWzANBgkqhkiG9w0BAQsFADAW
MRQwEgYDVQQDDAtFYXN5LVJTQSBDQTAeFw0yMTA1MjkwMjU4MTFaFw0yMzA5MDEw
MjU4MTFaMBIxEDAOBgNVBAMMB2NsaWVudDgwggEiMA0GCSqGSIb3DQEBAQUAA4IB
DwAwggEKAoIBAQDGT89DlCk6lY09urG1rj60ce/5OVvbpH3J0wCOFPRl3RIIlgn3
XSARs1w5N9Ql4xE6EmXL71t+x3LdP8fKFEm1HAoBUMfSKp1cLUFelrs7WivS2SaK
IedlT54tQHup+WD7Ja2sAyEcTJaGOJV1bSIF3qTftu888tYo0nW4fEj+HLbyQNlg
xTNinaiI44CWTGyegYyY6AkHadFrcRn5chOQxonWO1FAZcFUMJ9n/R7BMTim33mH
3zILi6iWmFckYeNZqSBRkdhdcf152Yy5B092XabUIm25NcK1a7MKjK/wnF0KWh87
g5ManJAml4h6gyOcWzJX8MMOB8pYgh86hsZHAgMBAAGjgaIwgZ8wCQYDVR0TBAIw
ADAdBgNVHQ4EFgQUBpyZO10DyJM9a0NqwsPxcI9pLtgwUQYDVR0jBEowSIAUiyDv
HnmqCFSDiba2OLD7PngWoWKhGqQYMBYxFDASBgNVBAMMC0Vhc3ktUlNBIENBghR5
fHYry44n8OdznFdjjDbP5ng+vTATBgNVHSUEDDAKBggrBgEFBQcDAjALBgNVHQ8E
BAMCB4AwDQYJKoZIhvcNAQELBQADggEBABnNVQ1ar9Y6KAS6aXnfnxrI5bad4RNF
vxsM343gjWWmLyNTngExo/XoOc1le9S4pJGvcaqpsZYs4OkrhrTqzVsi8avGZ7YH
hO00z65j3+QE82lfrgj1bb+Bi2OsGghwS6V6xdTMwb3Fr4Rcd8YZvTvAuIk95ocp
8RbCj/ThvH9TdxsiCQw6C63SDZHCvf/D2azoTfzETHt6VRXl7ig8Ku1L7D/Gy2aR
Zy/DNQotGk/V7IPGVl7uY/CWezQEEIfSdOSTKFbQF+Mb6P5VPFd3xyvpFeylVjrA
L27juDo7xH7Cg9Xjz1FXzhCU7XVpXcT40UraBPANrTnFrDFYfFOmIbw=
-----END CERTIFICATE-----
