Certificate:
    Data:
        Version: 3 (0x2)
        Serial Number:
            fd:dc:48:eb:55:7f:e2:4a:99:cc:ce:32:17:42:28:58
        Signature Algorithm: sha256WithRSAEncryption
        Issuer: CN=Easy-RSA CA
        Validity
            Not Before: May 29 02:58:37 2021 GMT
            Not After : Sep  1 02:58:37 2023 GMT
        Subject: CN=client10
        Subject Public Key Info:
            Public Key Algorithm: rsaEncryption
                RSA Public-Key: (2048 bit)
                Modulus:
                    00:bd:c4:79:7b:30:78:c0:f0:bd:a6:25:1c:c9:7c:
                    e0:ab:5a:6f:9a:1d:1f:60:c6:2c:f2:b6:64:4c:0c:
                    35:b1:d0:d5:bb:6b:7e:c8:b4:d0:0a:f1:4a:07:e7:
                    92:dc:4b:39:7b:3d:f7:71:88:6a:42:d2:8d:d4:49:
                    27:bc:1e:60:98:33:4c:9c:54:1a:b5:e2:42:98:da:
                    c1:1d:53:38:48:12:b0:be:f0:40:9c:3a:c7:76:29:
                    19:3e:ff:ef:65:19:e6:06:37:b6:d3:11:2f:26:7c:
                    f2:c8:20:2a:d7:95:df:52:92:5a:f2:c4:ea:13:34:
                    4f:c8:e6:05:d3:78:9f:ff:36:2f:56:ff:6d:42:82:
                    fe:06:d5:95:c0:25:d1:1f:dd:70:6c:14:60:7b:e3:
                    ba:95:33:31:85:b0:28:f2:05:ab:a1:e2:d1:ad:14:
                    6f:8e:9f:f6:c9:74:7e:3a:94:53:c4:46:fa:f8:fa:
                    4e:69:24:6a:e5:7c:37:2b:7c:78:d2:0f:b8:1a:a5:
                    bb:ca:7f:c1:19:4c:cf:4f:09:81:5d:89:d0:27:ab:
                    9a:2d:8d:72:fb:9c:e4:d8:bc:5d:71:f8:2b:e8:33:
                    87:fb:ef:be:4e:79:22:84:cd:4d:24:60:c9:20:3f:
                    73:a8:9a:38:1e:4a:ad:8d:bd:92:d9:3c:88:fb:5e:
                    e3:57
                Exponent: 65537 (0x10001)
        X509v3 extensions:
            X509v3 Basic Constraints: 
                CA:FALSE
            X509v3 Subject Key Identifier: 
                12:C1:98:3B:6A:52:D3:F1:AF:80:A9:BC:30:5A:74:9E:68:9C:A3:53
            X509v3 Authority Key Identifier: 
                keyid:8B:20:EF:1E:79:AA:08:54:83:89:B6:B6:38:B0:FB:3E:78:16:A1:62
                DirName:/CN=Easy-RSA CA
                serial:79:7C:76:2B:CB:8E:27:F0:E7:73:9C:57:63:8C:36:CF:E6:78:3E:BD

            X509v3 Extended Key Usage: 
                TLS Web Client Authentication
            X509v3 Key Usage: 
                Digital Signature
    Signature Algorithm: sha256WithRSAEncryption
         45:81:5a:01:81:5e:70:1a:b9:a4:8b:ff:17:92:b7:b5:ab:db:
         ad:61:a7:6a:12:a3:15:44:b4:20:ab:e4:23:71:19:c5:5e:29:
         12:1d:4c:4f:27:28:d0:7d:66:7b:14:b0:80:c0:c2:c3:f8:db:
         ba:b8:9e:da:95:bd:2f:ed:09:f4:ac:24:30:33:63:c6:fc:3c:
         e4:ca:82:61:a1:7e:50:7c:c1:b2:ae:d2:f8:48:9d:e3:31:9b:
         f2:54:15:06:a8:0b:38:69:97:2f:c6:4b:77:cc:01:0e:9b:2a:
         07:d1:7b:62:fd:7a:84:cf:53:13:f6:6e:56:54:a2:c8:51:8f:
         4d:77:61:1d:1c:0a:a1:f5:fa:1f:23:1e:a8:d5:ee:b9:96:02:
         6d:b8:2c:a5:c1:67:b5:e2:8d:1c:16:5d:9b:fd:6b:75:b6:f5:
         da:53:48:4f:4d:03:39:08:02:f5:7e:ca:69:29:aa:c1:a3:9e:
         50:cd:cf:3c:ee:b2:a0:74:37:10:97:dc:ff:35:87:57:14:05:
         14:ba:04:4c:18:cd:2b:ff:b5:e8:57:b0:26:69:cc:d2:43:c2:
         c3:8f:28:2e:57:ba:17:41:f1:b8:5f:ce:74:58:f0:f2:5a:0c:
         4a:54:a8:f9:a1:a2:80:02:69:a3:4d:1e:96:a7:3f:19:95:00:
         a4:fd:58:d8
-----BEGIN CERTIFICATE-----
MIIDVzCCAj+gAwIBAgIRAP3cSOtVf+JKmczOMhdCKFgwDQYJKoZIhvcNAQELBQAw
FjEUMBIGA1UEAwwLRWFzeS1SU0EgQ0EwHhcNMjEwNTI5MDI1ODM3WhcNMjMwOTAx
MDI1ODM3WjATMREwDwYDVQQDDAhjbGllbnQxMDCCASIwDQYJKoZIhvcNAQEBBQAD
ggEPADCCAQoCggEBAL3EeXsweMDwvaYlHMl84Ktab5odH2DGLPK2ZEwMNbHQ1btr
fsi00ArxSgfnktxLOXs993GIakLSjdRJJ7weYJgzTJxUGrXiQpjawR1TOEgSsL7w
QJw6x3YpGT7/72UZ5gY3ttMRLyZ88sggKteV31KSWvLE6hM0T8jmBdN4n/82L1b/
bUKC/gbVlcAl0R/dcGwUYHvjupUzMYWwKPIFq6Hi0a0Ub46f9sl0fjqUU8RG+vj6
TmkkauV8Nyt8eNIPuBqlu8p/wRlMz08JgV2J0Cermi2Ncvuc5Ni8XXH4K+gzh/vv
vk55IoTNTSRgySA/c6iaOB5KrY29ktk8iPte41cCAwEAAaOBojCBnzAJBgNVHRME
AjAAMB0GA1UdDgQWBBQSwZg7alLT8a+AqbwwWnSeaJyjUzBRBgNVHSMESjBIgBSL
IO8eeaoIVIOJtrY4sPs+eBahYqEapBgwFjEUMBIGA1UEAwwLRWFzeS1SU0EgQ0GC
FHl8divLjifw53OcV2OMNs/meD69MBMGA1UdJQQMMAoGCCsGAQUFBwMCMAsGA1Ud
DwQEAwIHgDANBgkqhkiG9w0BAQsFAAOCAQEARYFaAYFecBq5pIv/F5K3tavbrWGn
ahKjFUS0IKvkI3EZxV4pEh1MTyco0H1mexSwgMDCw/jburie2pW9L+0J9KwkMDNj
xvw85MqCYaF+UHzBsq7S+Eid4zGb8lQVBqgLOGmXL8ZLd8wBDpsqB9F7Yv16hM9T
E/ZuVlSiyFGPTXdhHRwKofX6HyMeqNXuuZYCbbgspcFnteKNHBZdm/1rdbb12lNI
T00DOQgC9X7KaSmqwaOeUM3PPO6yoHQ3EJfc/zWHVxQFFLoETBjNK/+16FewJmnM
0kPCw48oLle6F0HxuF/OdFjw8loMSlSo+aGigAJpo00elqc/GZUApP1Y2A==
-----END CERTIFICATE-----
