Certificate:
    Data:
        Version: 3 (0x2)
        Serial Number:
            0f:9d:39:90:3d:1b:c3:c6:86:b0:f9:09:a1:0d:04:fe
        Signature Algorithm: sha256WithRSAEncryption
        Issuer: CN=Easy-RSA CA
        Validity
            Not Before: Aug 14 13:45:48 2021 GMT
            Not After : Nov 17 13:45:48 2023 GMT
        Subject: CN=gateway
        Subject Public Key Info:
            Public Key Algorithm: rsaEncryption
                RSA Public-Key: (2048 bit)
                Modulus:
                    00:a5:7f:11:4c:86:86:6b:ec:be:cb:86:a4:d0:98:
                    39:e6:c1:ff:e3:bd:4d:17:c0:68:f9:cb:8e:f6:49:
                    4b:eb:04:64:db:0f:11:01:34:db:b1:2a:cf:1c:d1:
                    91:0e:6b:2c:43:aa:30:c1:63:5d:1d:76:f4:10:33:
                    8f:e9:47:14:d7:3e:c3:e5:7c:76:ae:07:22:ba:91:
                    b8:b2:18:cf:f0:49:81:a6:11:13:03:1e:d1:24:c0:
                    8b:73:09:92:d2:33:19:15:2a:5f:a5:62:d9:cf:ba:
                    df:c6:55:5c:89:a6:c3:d4:40:e2:a4:15:47:f2:6e:
                    3a:77:67:02:a4:11:a1:00:8a:27:2a:d7:b7:04:9f:
                    d7:a3:52:f8:f6:8e:ec:09:14:bc:10:c7:0e:2b:e3:
                    be:0a:6d:37:e3:54:50:ce:01:10:f0:c0:f5:73:2d:
                    6d:4d:07:28:54:19:d2:81:02:38:92:e7:ac:aa:da:
                    50:1f:7c:2f:07:c7:7b:b5:e6:80:a7:66:2a:fc:88:
                    5d:da:2e:24:e1:33:6f:3c:2b:a0:10:1c:54:f5:e3:
                    79:92:2c:8f:76:26:f1:d4:f9:b9:a4:aa:fb:ce:6c:
                    36:6f:0b:1e:4b:55:a4:21:dd:18:35:3f:4e:14:eb:
                    14:d0:9f:48:03:a3:3e:34:2d:3d:18:05:18:b2:15:
                    1c:63
                Exponent: 65537 (0x10001)
        X509v3 extensions:
            X509v3 Basic Constraints: 
                CA:FALSE
            X509v3 Subject Key Identifier: 
                C9:D2:58:89:F5:4D:17:4A:F9:0E:C4:47:85:3F:8C:12:19:44:8B:17
            X509v3 Authority Key Identifier: 
                keyid:8B:20:EF:1E:79:AA:08:54:83:89:B6:B6:38:B0:FB:3E:78:16:A1:62
                DirName:/CN=Easy-RSA CA
                serial:79:7C:76:2B:CB:8E:27:F0:E7:73:9C:57:63:8C:36:CF:E6:78:3E:BD

            X509v3 Extended Key Usage: 
                TLS Web Client Authentication
            X509v3 Key Usage: 
                Digital Signature
    Signature Algorithm: sha256WithRSAEncryption
         60:d5:7b:59:b6:92:33:c1:93:8e:cc:7d:1e:26:33:31:1e:33:
         47:97:71:ad:03:9d:b1:65:1d:0b:4c:c4:b7:1a:9e:b5:ea:03:
         8a:60:07:c9:a7:fc:94:3d:c6:49:c7:83:f6:c1:7e:2b:49:1f:
         86:ed:39:a7:7d:bd:13:f8:d7:8c:37:3f:ad:79:cc:f9:e6:b9:
         3f:c8:6a:4d:ea:be:d2:53:bb:83:07:6c:23:08:23:bd:f2:4c:
         7d:d7:e7:62:62:3d:1a:5a:c7:38:c3:4f:e0:fe:be:ff:16:5b:
         bb:0c:cb:88:bd:b2:18:11:05:3e:cd:3a:a9:be:af:39:6b:43:
         c3:e5:0d:8a:94:d2:c7:8b:33:df:e4:b9:4f:c1:32:53:f2:a4:
         8d:b4:6f:4e:20:bb:3c:38:b5:04:2d:f1:30:e1:84:82:cd:10:
         14:f0:15:8e:26:47:15:f4:69:c2:f8:f2:ed:76:4d:d5:21:c2:
         50:4b:30:1e:5e:55:ff:23:90:61:fa:6c:52:81:8a:9c:b8:4f:
         f5:47:ba:f9:5a:93:0b:4a:36:6d:ca:92:6f:fd:bb:7f:50:e4:
         cb:32:45:40:22:13:86:35:c4:4f:53:20:bb:d3:45:be:3e:09:
         5d:9b:af:c0:ff:0c:2a:94:91:08:22:08:51:10:3f:f9:f4:9d:
         73:02:1f:7e
-----BEGIN CERTIFICATE-----
MIIDVTCCAj2gAwIBAgIQD505kD0bw8aGsPkJoQ0E/jANBgkqhkiG9w0BAQsFADAW
MRQwEgYDVQQDDAtFYXN5LVJTQSBDQTAeFw0yMTA4MTQxMzQ1NDhaFw0yMzExMTcx
MzQ1NDhaMBIxEDAOBgNVBAMMB2dhdGV3YXkwggEiMA0GCSqGSIb3DQEBAQUAA4IB
DwAwggEKAoIBAQClfxFMhoZr7L7LhqTQmDnmwf/jvU0XwGj5y472SUvrBGTbDxEB
NNuxKs8c0ZEOayxDqjDBY10ddvQQM4/pRxTXPsPlfHauByK6kbiyGM/wSYGmERMD
HtEkwItzCZLSMxkVKl+lYtnPut/GVVyJpsPUQOKkFUfybjp3ZwKkEaEAiicq17cE
n9ejUvj2juwJFLwQxw4r474KbTfjVFDOARDwwPVzLW1NByhUGdKBAjiS56yq2lAf
fC8Hx3u15oCnZir8iF3aLiThM288K6AQHFT143mSLI92JvHU+bmkqvvObDZvCx5L
VaQh3Rg1P04U6xTQn0gDoz40LT0YBRiyFRxjAgMBAAGjgaIwgZ8wCQYDVR0TBAIw
ADAdBgNVHQ4EFgQUydJYifVNF0r5DsRHhT+MEhlEixcwUQYDVR0jBEowSIAUiyDv
HnmqCFSDiba2OLD7PngWoWKhGqQYMBYxFDASBgNVBAMMC0Vhc3ktUlNBIENBghR5
fHYry44n8OdznFdjjDbP5ng+vTATBgNVHSUEDDAKBggrBgEFBQcDAjALBgNVHQ8E
BAMCB4AwDQYJKoZIhvcNAQELBQADggEBAGDVe1m2kjPBk47MfR4mMzEeM0eXca0D
nbFlHQtMxLcanrXqA4pgB8mn/JQ9xknHg/bBfitJH4btOad9vRP414w3P615zPnm
uT/Iak3qvtJTu4MHbCMII73yTH3X52JiPRpaxzjDT+D+vv8WW7sMy4i9shgRBT7N
Oqm+rzlrQ8PlDYqU0seLM9/kuU/BMlPypI20b04guzw4tQQt8TDhhILNEBTwFY4m
RxX0acL48u12TdUhwlBLMB5eVf8jkGH6bFKBipy4T/VHuvlakwtKNm3Kkm/9u39Q
5MsyRUAiE4Y1xE9TILvTRb4+CV2br8D/DCqUkQgiCFEQP/n0nXMCH34=
-----END CERTIFICATE-----
