Certificate:
    Data:
        Version: 3 (0x2)
        Serial Number:
            7e:30:f1:5c:6d:d0:a2:35:89:aa:df:f2:1c:94:d9:6e
        Signature Algorithm: sha256WithRSAEncryption
        Issuer: CN=Easy-RSA CA
        Validity
            Not Before: May 27 09:51:59 2021 GMT
            Not After : Aug 30 09:51:59 2023 GMT
        Subject: CN=client1
        Subject Public Key Info:
            Public Key Algorithm: rsaEncryption
                RSA Public-Key: (2048 bit)
                Modulus:
                    00:a4:76:e4:99:03:ec:8c:72:90:cd:8f:6b:6f:01:
                    3a:03:91:93:67:e1:ab:34:c3:b5:50:af:a4:6d:93:
                    e2:7a:50:97:8c:5f:f7:b2:c0:d5:06:ae:65:24:06:
                    fc:25:25:1a:79:85:f6:62:ba:69:85:4b:08:6b:d5:
                    3e:ff:99:76:b0:90:bb:ed:25:6e:f3:f9:c4:72:3c:
                    f1:1e:51:9e:c7:72:50:b4:19:3a:7c:c5:b1:0b:7d:
                    d2:3a:c3:13:e8:7b:32:39:7d:a1:a0:f1:07:a9:e4:
                    a4:78:90:9b:94:f0:54:35:07:b4:31:36:45:4f:f0:
                    ec:2e:fc:26:b3:45:1b:84:2c:6d:10:b2:c2:2c:bc:
                    f5:c8:12:05:ec:d6:30:14:35:3f:07:bd:4d:fd:01:
                    11:c8:77:38:67:46:d1:0b:52:a5:b4:bc:a6:9e:ea:
                    96:83:49:19:25:63:2c:6a:69:4b:7a:a6:8f:b1:68:
                    94:36:db:19:04:6a:05:3e:47:aa:c3:cf:08:72:34:
                    43:a7:37:27:ca:46:3f:4f:0a:c3:80:09:3a:2e:d4:
                    8c:59:18:1b:92:44:4d:95:05:a3:20:98:c7:af:ca:
                    04:92:d5:79:02:7c:f1:c1:15:c6:eb:8f:0e:df:88:
                    e5:f8:29:67:55:d9:19:42:21:10:a0:23:bb:87:b6:
                    b5:09
                Exponent: 65537 (0x10001)
        X509v3 extensions:
            X509v3 Basic Constraints: 
                CA:FALSE
            X509v3 Subject Key Identifier: 
                16:B8:FF:AB:73:6C:0A:AE:E3:BC:B2:BE:C7:12:C8:C3:FB:EF:47:C5
            X509v3 Authority Key Identifier: 
                keyid:8B:20:EF:1E:79:AA:08:54:83:89:B6:B6:38:B0:FB:3E:78:16:A1:62
                DirName:/CN=Easy-RSA CA
                serial:79:7C:76:2B:CB:8E:27:F0:E7:73:9C:57:63:8C:36:CF:E6:78:3E:BD

            X509v3 Extended Key Usage: 
                TLS Web Client Authentication
            X509v3 Key Usage: 
                Digital Signature
    Signature Algorithm: sha256WithRSAEncryption
         6c:33:4c:e1:05:3a:6e:c4:4e:2b:32:71:ec:d6:9c:f2:57:b1:
         b0:ed:53:d2:1a:fc:8c:03:de:53:66:f9:15:cf:a0:c0:eb:c0:
         2a:b2:34:ed:72:49:09:96:f2:ea:6e:c9:80:9a:3c:c0:a1:4e:
         b1:20:58:22:50:75:3c:2b:06:c3:bc:86:bd:91:52:c6:0f:1d:
         b2:95:ec:69:84:c1:e3:fa:82:ad:38:1d:92:c7:9d:a2:cf:ff:
         17:fd:1a:42:2b:0a:ee:05:8e:f3:05:ab:b9:06:27:52:54:76:
         5a:d4:a2:bd:f2:4d:7a:9a:81:4d:39:ea:6d:1f:d9:6f:1d:1a:
         61:d0:4f:6a:e2:1f:52:68:b5:8e:7d:d3:3f:35:dc:4f:ad:9d:
         21:6a:16:3e:6d:7a:5a:4c:6e:c4:9e:b5:14:7b:07:c2:97:dd:
         20:12:6a:c2:95:46:ba:ad:7d:26:38:ba:5d:03:54:ce:6f:e9:
         21:72:b2:df:94:3b:19:c1:4c:ad:45:52:ac:1e:3a:88:19:b6:
         df:6b:d1:bf:eb:3b:ca:1d:3b:bf:48:e4:a7:8a:04:ec:62:bc:
         8b:ec:13:ac:59:fd:f3:c5:e4:42:7d:b5:1f:59:28:45:35:88:
         78:82:84:c6:7c:91:13:60:66:55:5b:e3:ec:c0:c6:bf:82:31:
         05:2e:48:61
-----BEGIN CERTIFICATE-----
MIIDVTCCAj2gAwIBAgIQfjDxXG3QojWJqt/yHJTZbjANBgkqhkiG9w0BAQsFADAW
MRQwEgYDVQQDDAtFYXN5LVJTQSBDQTAeFw0yMTA1MjcwOTUxNTlaFw0yMzA4MzAw
OTUxNTlaMBIxEDAOBgNVBAMMB2NsaWVudDEwggEiMA0GCSqGSIb3DQEBAQUAA4IB
DwAwggEKAoIBAQCkduSZA+yMcpDNj2tvAToDkZNn4as0w7VQr6Rtk+J6UJeMX/ey
wNUGrmUkBvwlJRp5hfZiummFSwhr1T7/mXawkLvtJW7z+cRyPPEeUZ7HclC0GTp8
xbELfdI6wxPoezI5faGg8Qep5KR4kJuU8FQ1B7QxNkVP8Owu/CazRRuELG0QssIs
vPXIEgXs1jAUNT8HvU39ARHIdzhnRtELUqW0vKae6paDSRklYyxqaUt6po+xaJQ2
2xkEagU+R6rDzwhyNEOnNyfKRj9PCsOACTou1IxZGBuSRE2VBaMgmMevygSS1XkC
fPHBFcbrjw7fiOX4KWdV2RlCIRCgI7uHtrUJAgMBAAGjgaIwgZ8wCQYDVR0TBAIw
ADAdBgNVHQ4EFgQUFrj/q3NsCq7jvLK+xxLIw/vvR8UwUQYDVR0jBEowSIAUiyDv
HnmqCFSDiba2OLD7PngWoWKhGqQYMBYxFDASBgNVBAMMC0Vhc3ktUlNBIENBghR5
fHYry44n8OdznFdjjDbP5ng+vTATBgNVHSUEDDAKBggrBgEFBQcDAjALBgNVHQ8E
BAMCB4AwDQYJKoZIhvcNAQELBQADggEBAGwzTOEFOm7ETisycezWnPJXsbDtU9Ia
/IwD3lNm+RXPoMDrwCqyNO1ySQmW8upuyYCaPMChTrEgWCJQdTwrBsO8hr2RUsYP
HbKV7GmEweP6gq04HZLHnaLP/xf9GkIrCu4FjvMFq7kGJ1JUdlrUor3yTXqagU05
6m0f2W8dGmHQT2riH1JotY590z813E+tnSFqFj5telpMbsSetRR7B8KX3SASasKV
RrqtfSY4ul0DVM5v6SFyst+UOxnBTK1FUqweOogZtt9r0b/rO8odO79I5KeKBOxi
vIvsE6xZ/fPF5EJ9tR9ZKEU1iHiChMZ8kRNgZlVb4+zAxr+CMQUuSGE=
-----END CERTIFICATE-----
