Certificate:
    Data:
        Version: 3 (0x2)
        Serial Number:
            71:bb:2d:eb:e7:40:b4:e1:5a:c2:34:35:ee:21:04:c3
        Signature Algorithm: sha256WithRSAEncryption
        Issuer: CN=Easy-RSA CA
        Validity
            Not Before: Jun 11 12:44:07 2021 GMT
            Not After : Sep 14 12:44:07 2023 GMT
        Subject: CN=client4
        Subject Public Key Info:
            Public Key Algorithm: rsaEncryption
                RSA Public-Key: (2048 bit)
                Modulus:
                    00:e5:51:e8:6c:87:4a:0f:52:3e:4e:33:c6:1d:cd:
                    b7:78:11:83:bb:91:4b:b7:d6:2e:1d:44:a0:9c:06:
                    f8:3d:38:25:a1:55:f1:b4:8d:6b:9d:d3:50:0c:81:
                    cb:d8:bd:4c:da:ac:be:00:15:f4:33:f6:f6:5e:c1:
                    9b:c8:dd:f0:68:ba:ac:74:8f:64:0f:c0:b7:1e:8c:
                    9f:06:cf:ef:03:54:43:cc:7c:89:0f:d1:28:da:b7:
                    4a:48:eb:d8:0f:1f:5b:08:ea:36:21:91:f6:71:a6:
                    98:ae:7a:e3:6d:58:67:9a:ca:a2:50:83:e9:bb:b4:
                    8d:fe:80:14:58:14:fc:7e:b7:a1:d9:5a:0b:30:09:
                    fd:c8:27:ab:6b:b6:48:b6:ea:17:55:42:9c:1e:06:
                    55:9b:a3:84:41:3c:dc:b0:31:e3:a0:1d:53:83:93:
                    31:26:3b:2c:12:cb:24:2a:5b:90:ad:e7:60:e2:16:
                    de:0d:c1:56:07:da:04:6a:eb:d5:ff:90:15:d8:d7:
                    b6:91:58:13:b3:b5:0c:cd:a9:19:90:c3:ef:0c:a2:
                    b5:d1:69:11:b6:03:2f:77:98:50:e6:11:9d:96:01:
                    61:e3:52:73:e0:d3:70:6c:99:33:3b:d8:38:96:7c:
                    7b:2a:82:22:f9:ab:72:2a:ae:e9:ca:76:94:91:40:
                    9e:b5
                Exponent: 65537 (0x10001)
        X509v3 extensions:
            X509v3 Basic Constraints: 
                CA:FALSE
            X509v3 Subject Key Identifier: 
                F4:82:7A:AE:40:74:61:A1:6F:80:21:CA:EB:EC:F8:2A:97:D4:22:6C
            X509v3 Authority Key Identifier: 
                keyid:4C:78:56:52:AD:F6:38:7D:B3:B6:E1:3B:6A:E7:92:2F:98:B6:7A:BF
                DirName:/CN=Easy-RSA CA
                serial:3C:AB:47:AE:F7:FA:E8:57:3F:94:6A:62:EC:1E:CC:8E:64:06:6E:92

            X509v3 Extended Key Usage: 
                TLS Web Client Authentication
            X509v3 Key Usage: 
                Digital Signature
    Signature Algorithm: sha256WithRSAEncryption
         52:08:ed:2d:4c:60:20:5f:f6:87:c9:88:22:bf:c4:ad:79:e0:
         af:eb:0f:4b:77:59:ab:4e:a4:0a:be:39:89:f6:54:93:5c:e2:
         5a:1d:e4:b2:75:93:d0:32:4a:b8:e0:b8:7a:b6:d3:0b:1c:2c:
         9c:4f:c6:bb:3b:11:6d:0d:b4:05:39:b7:59:e6:07:68:c5:46:
         3c:7d:ee:cb:ed:47:33:e7:7b:5c:f8:79:b0:13:92:84:8e:c2:
         0f:5d:18:cf:91:3e:08:23:53:66:30:e7:09:46:02:01:47:e8:
         23:5e:f3:8c:3a:3b:63:66:43:f3:47:a1:bf:d4:54:2d:75:98:
         e0:91:69:6a:e9:94:85:72:68:18:aa:b4:06:f7:e2:5c:73:a5:
         ba:14:83:cc:9e:50:c7:8f:cf:d9:2d:5c:ac:57:a2:6e:af:25:
         fb:4d:76:c5:82:e7:1f:94:49:e8:1b:a9:b9:4e:d3:92:a6:36:
         a7:c5:ca:a5:a3:c7:53:6d:c4:88:9f:57:1c:fd:83:fb:d1:55:
         85:21:3f:2f:1c:e6:39:ce:18:25:16:51:1d:24:99:75:e4:05:
         2c:68:19:be:ff:2a:28:c6:1f:a3:25:df:2b:22:10:69:c9:87:
         4f:b9:b4:f1:9b:5e:91:0a:4d:36:0d:ef:21:29:4e:8d:dc:06:
         9f:b6:ed:26
-----BEGIN CERTIFICATE-----
MIIDVTCCAj2gAwIBAgIQcbst6+dAtOFawjQ17iEEwzANBgkqhkiG9w0BAQsFADAW
MRQwEgYDVQQDDAtFYXN5LVJTQSBDQTAeFw0yMTA2MTExMjQ0MDdaFw0yMzA5MTQx
MjQ0MDdaMBIxEDAOBgNVBAMMB2NsaWVudDQwggEiMA0GCSqGSIb3DQEBAQUAA4IB
DwAwggEKAoIBAQDlUehsh0oPUj5OM8Ydzbd4EYO7kUu31i4dRKCcBvg9OCWhVfG0
jWud01AMgcvYvUzarL4AFfQz9vZewZvI3fBouqx0j2QPwLcejJ8Gz+8DVEPMfIkP
0Sjat0pI69gPH1sI6jYhkfZxppiueuNtWGeayqJQg+m7tI3+gBRYFPx+t6HZWgsw
Cf3IJ6trtki26hdVQpweBlWbo4RBPNywMeOgHVODkzEmOywSyyQqW5Ct52DiFt4N
wVYH2gRq69X/kBXY17aRWBOztQzNqRmQw+8MorXRaRG2Ay93mFDmEZ2WAWHjUnPg
03BsmTM72DiWfHsqgiL5q3IqrunKdpSRQJ61AgMBAAGjgaIwgZ8wCQYDVR0TBAIw
ADAdBgNVHQ4EFgQU9IJ6rkB0YaFvgCHK6+z4KpfUImwwUQYDVR0jBEowSIAUTHhW
Uq32OH2ztuE7aueSL5i2er+hGqQYMBYxFDASBgNVBAMMC0Vhc3ktUlNBIENBghQ8
q0eu9/roVz+UamLsHsyOZAZukjATBgNVHSUEDDAKBggrBgEFBQcDAjALBgNVHQ8E
BAMCB4AwDQYJKoZIhvcNAQELBQADggEBAFII7S1MYCBf9ofJiCK/xK154K/rD0t3
WatOpAq+OYn2VJNc4lod5LJ1k9AySrjguHq20wscLJxPxrs7EW0NtAU5t1nmB2jF
Rjx97svtRzPne1z4ebATkoSOwg9dGM+RPggjU2Yw5wlGAgFH6CNe84w6O2NmQ/NH
ob/UVC11mOCRaWrplIVyaBiqtAb34lxzpboUg8yeUMePz9ktXKxXom6vJftNdsWC
5x+USegbqblO05KmNqfFyqWjx1NtxIifVxz9g/vRVYUhPy8c5jnOGCUWUR0kmXXk
BSxoGb7/KijGH6Ml3ysiEGnJh0+5tPGbXpEKTTYN7yEpTo3cBp+27SY=
-----END CERTIFICATE-----
