Certificate:
    Data:
        Version: 3 (0x2)
        Serial Number:
            11:a7:6f:2f:68:db:f5:af:09:ae:37:a7:71:99:fe:90
        Signature Algorithm: sha256WithRSAEncryption
        Issuer: CN=Easy-RSA CA
        Validity
            Not Before: Jun 11 12:42:53 2021 GMT
            Not After : Sep 14 12:42:53 2023 GMT
        Subject: CN=client2
        Subject Public Key Info:
            Public Key Algorithm: rsaEncryption
                RSA Public-Key: (2048 bit)
                Modulus:
                    00:ac:a2:d2:9f:3a:26:d2:36:a7:20:b8:c7:e5:5e:
                    db:79:85:61:0f:7c:ae:1d:0d:d6:40:5a:5e:9d:55:
                    13:de:c7:10:e1:ff:9f:4e:eb:a4:62:3f:f2:df:4d:
                    b8:34:ac:03:52:ef:5f:84:e5:d6:4d:5c:98:3d:4d:
                    33:b1:53:7c:4f:76:b4:50:f4:93:70:6d:da:5d:33:
                    29:04:29:76:88:22:12:2f:ef:97:4d:fc:d5:bd:bc:
                    c7:24:8a:54:9b:d9:c7:03:29:44:20:cf:f0:e5:24:
                    5f:8e:97:b1:be:04:5e:6d:84:ce:83:1d:5a:aa:e7:
                    19:48:fb:4f:58:4b:88:06:76:a2:f0:b3:97:81:29:
                    bf:71:7f:76:0f:40:a1:81:62:d7:01:c8:1d:1d:b9:
                    04:d3:be:de:02:36:e8:e4:fc:88:a1:88:91:f4:53:
                    44:0a:65:ba:c9:d2:90:ba:0f:50:4b:55:56:51:95:
                    fd:69:e1:d0:30:cc:9e:b2:25:8f:30:c4:2c:ea:ec:
                    36:48:86:03:2b:84:24:43:50:a6:c8:a9:b0:ce:10:
                    b6:c7:66:04:5b:77:1a:bd:75:8d:8a:23:6f:45:7c:
                    08:cb:f8:1a:1a:54:69:3a:0b:53:9d:dd:7c:5c:ec:
                    7c:c4:f7:4a:f2:32:7e:6c:71:f8:7e:a1:c6:27:05:
                    9a:5f
                Exponent: 65537 (0x10001)
        X509v3 extensions:
            X509v3 Basic Constraints: 
                CA:FALSE
            X509v3 Subject Key Identifier: 
                77:97:67:B2:9F:44:2B:BD:93:AC:0A:51:76:2C:31:83:09:0F:8B:4D
            X509v3 Authority Key Identifier: 
                keyid:4C:78:56:52:AD:F6:38:7D:B3:B6:E1:3B:6A:E7:92:2F:98:B6:7A:BF
                DirName:/CN=Easy-RSA CA
                serial:3C:AB:47:AE:F7:FA:E8:57:3F:94:6A:62:EC:1E:CC:8E:64:06:6E:92

            X509v3 Extended Key Usage: 
                TLS Web Client Authentication
            X509v3 Key Usage: 
                Digital Signature
    Signature Algorithm: sha256WithRSAEncryption
         33:98:2c:30:e1:26:ff:db:cf:f4:6e:75:ed:c7:6e:8a:c3:09:
         d7:1e:db:03:e3:5e:b9:88:9b:06:8f:f8:f6:25:48:52:9e:e0:
         a0:bb:5c:9e:f6:f5:22:b2:98:5d:83:fb:61:86:da:5b:3f:2e:
         08:88:13:c2:fe:f2:fc:b8:a1:85:e2:e3:cc:ef:4a:60:1a:7d:
         1f:1b:dc:bb:51:0c:a5:eb:5a:bf:70:d9:71:85:b3:26:49:89:
         95:21:93:1f:39:d7:c8:f1:50:e9:0b:18:e7:23:42:b5:d9:2b:
         32:73:bc:5b:a7:bb:65:91:54:05:62:40:08:ac:c5:bd:d1:2f:
         2b:ed:b8:7a:3d:50:e8:65:6a:d0:2f:d0:d1:65:bb:4e:f7:2a:
         1f:83:c3:1a:1f:5f:d2:32:42:25:83:38:3f:88:8f:37:34:c7:
         82:e6:1d:7c:07:a2:42:b4:fb:30:77:85:7c:ff:39:72:3e:83:
         56:be:14:1d:02:d5:91:6c:c7:88:80:ff:3f:4c:4c:a3:f1:09:
         26:ad:8f:14:13:b3:5c:26:f1:51:af:1c:a8:c3:ee:7d:81:e6:
         9a:c9:9b:a9:bf:78:12:a8:f6:c1:22:19:b3:de:3e:15:1b:f6:
         ff:f9:f0:20:5e:98:dd:0c:d2:cc:dc:2f:5c:1b:44:18:19:71:
         b3:9b:d3:c9
-----BEGIN CERTIFICATE-----
MIIDVTCCAj2gAwIBAgIQEadvL2jb9a8JrjencZn+kDANBgkqhkiG9w0BAQsFADAW
MRQwEgYDVQQDDAtFYXN5LVJTQSBDQTAeFw0yMTA2MTExMjQyNTNaFw0yMzA5MTQx
MjQyNTNaMBIxEDAOBgNVBAMMB2NsaWVudDIwggEiMA0GCSqGSIb3DQEBAQUAA4IB
DwAwggEKAoIBAQCsotKfOibSNqcguMflXtt5hWEPfK4dDdZAWl6dVRPexxDh/59O
66RiP/LfTbg0rANS71+E5dZNXJg9TTOxU3xPdrRQ9JNwbdpdMykEKXaIIhIv75dN
/NW9vMckilSb2ccDKUQgz/DlJF+Ol7G+BF5thM6DHVqq5xlI+09YS4gGdqLws5eB
Kb9xf3YPQKGBYtcByB0duQTTvt4CNujk/IihiJH0U0QKZbrJ0pC6D1BLVVZRlf1p
4dAwzJ6yJY8wxCzq7DZIhgMrhCRDUKbIqbDOELbHZgRbdxq9dY2KI29FfAjL+Boa
VGk6C1Od3Xxc7HzE90ryMn5scfh+ocYnBZpfAgMBAAGjgaIwgZ8wCQYDVR0TBAIw
ADAdBgNVHQ4EFgQUd5dnsp9EK72TrApRdiwxgwkPi00wUQYDVR0jBEowSIAUTHhW
Uq32OH2ztuE7aueSL5i2er+hGqQYMBYxFDASBgNVBAMMC0Vhc3ktUlNBIENBghQ8
q0eu9/roVz+UamLsHsyOZAZukjATBgNVHSUEDDAKBggrBgEFBQcDAjALBgNVHQ8E
BAMCB4AwDQYJKoZIhvcNAQELBQADggEBADOYLDDhJv/bz/Rude3HborDCdce2wPj
XrmImwaP+PYlSFKe4KC7XJ729SKymF2D+2GG2ls/LgiIE8L+8vy4oYXi48zvSmAa
fR8b3LtRDKXrWr9w2XGFsyZJiZUhkx8518jxUOkLGOcjQrXZKzJzvFunu2WRVAVi
QAisxb3RLyvtuHo9UOhlatAv0NFlu073Kh+DwxofX9IyQiWDOD+Ijzc0x4LmHXwH
okK0+zB3hXz/OXI+g1a+FB0C1ZFsx4iA/z9MTKPxCSatjxQTs1wm8VGvHKjD7n2B
5prJm6m/eBKo9sEiGbPePhUb9v/58CBemN0M0szcL1wbRBgZcbOb08k=
-----END CERTIFICATE-----
