Certificate:
    Data:
        Version: 3 (0x2)
        Serial Number:
            57:c1:e3:f4:14:14:0e:66:41:94:0e:45:d3:c8:90:6a
        Signature Algorithm: sha256WithRSAEncryption
        Issuer: CN=Easy-RSA CA
        Validity
            Not Before: Aug 17 17:06:31 2021 GMT
            Not After : Nov 20 17:06:31 2023 GMT
        Subject: CN=vmwarewin
        Subject Public Key Info:
            Public Key Algorithm: rsaEncryption
                RSA Public-Key: (2048 bit)
                Modulus:
                    00:a2:05:f7:8a:47:15:72:f7:b8:7a:77:57:9b:50:
                    b0:ec:06:17:06:c5:c6:8c:12:17:3e:32:dd:1b:a7:
                    cb:8c:38:d6:c0:13:0e:5c:19:4a:6b:a4:53:4c:ea:
                    e9:2b:dc:93:3a:fd:70:53:87:af:7c:49:91:39:9d:
                    09:b8:5d:d3:9d:da:81:af:cf:62:fd:51:8f:14:04:
                    aa:7e:fa:e4:bd:48:07:e0:30:08:68:bf:1a:c2:44:
                    24:89:9a:6b:6c:02:22:39:88:f7:96:41:c2:0b:1b:
                    43:d4:56:58:20:74:0d:6a:ae:64:14:f4:0e:2f:53:
                    d1:a4:db:0d:23:d5:07:a9:a4:55:b9:c2:84:0a:f6:
                    85:6b:73:f6:83:12:75:55:41:0d:33:f2:a7:80:c0:
                    fd:63:e6:be:a8:03:08:7a:87:43:88:89:97:c3:b1:
                    02:68:f9:a9:ee:2d:3a:be:5a:a0:75:e7:b1:57:72:
                    cd:35:e4:d6:a6:db:93:f3:4b:ca:9a:51:76:4c:bd:
                    f2:38:53:e0:74:2d:61:a8:c0:15:32:93:c3:a8:02:
                    8b:9f:89:b3:b5:c3:ff:83:21:6a:d9:9d:5b:85:f8:
                    1d:b4:f5:cd:8b:dc:11:78:15:c6:8f:01:9e:84:0c:
                    6c:b0:7e:0d:03:da:4f:fb:f9:c8:fe:45:f7:39:dd:
                    ea:19
                Exponent: 65537 (0x10001)
        X509v3 extensions:
            X509v3 Basic Constraints: 
                CA:FALSE
            X509v3 Subject Key Identifier: 
                79:68:81:67:8B:80:C6:20:A3:89:CC:7F:08:53:D5:75:AD:08:B0:21
            X509v3 Authority Key Identifier: 
                keyid:8B:20:EF:1E:79:AA:08:54:83:89:B6:B6:38:B0:FB:3E:78:16:A1:62
                DirName:/CN=Easy-RSA CA
                serial:79:7C:76:2B:CB:8E:27:F0:E7:73:9C:57:63:8C:36:CF:E6:78:3E:BD

            X509v3 Extended Key Usage: 
                TLS Web Client Authentication
            X509v3 Key Usage: 
                Digital Signature
    Signature Algorithm: sha256WithRSAEncryption
         65:f0:17:05:5c:8c:9e:0e:8e:f1:f8:6d:9c:3d:60:52:b8:aa:
         2b:d5:00:8c:55:08:bf:ce:fb:6c:f5:99:a6:5b:55:41:03:32:
         e8:5c:22:47:f2:e8:58:02:89:7d:56:af:96:50:13:78:45:2e:
         8e:7b:55:b7:b3:4c:5a:a9:96:33:35:3e:9a:85:94:53:e8:55:
         f9:4b:a5:94:56:87:62:1d:2d:8b:5b:57:d4:e1:1f:cd:03:25:
         3e:58:18:31:bb:8f:2a:e0:a6:65:01:d0:32:63:70:eb:09:23:
         c8:62:d5:60:53:e0:c6:a0:c2:76:fa:cf:69:4f:ce:52:a8:ec:
         44:24:37:9e:fe:34:4d:d6:cf:eb:8b:55:55:78:3c:ce:c2:f7:
         9e:5f:c1:73:81:b1:a6:a5:e7:5e:12:e1:93:26:83:1f:3f:c8:
         a6:21:1e:10:d3:3a:fb:7b:3c:f9:50:f8:37:7d:9f:28:7d:49:
         d5:09:c3:21:73:8d:59:c8:fa:78:5d:b7:f2:ab:e3:49:ea:b8:
         8d:69:44:6c:f4:25:22:85:19:26:a4:5e:93:17:2c:94:94:96:
         5a:22:60:8a:1b:21:57:59:99:b7:b9:3f:23:bb:77:21:ba:46:
         f8:91:5e:99:98:b2:62:21:5b:16:65:31:16:36:12:2d:8f:e0:
         e8:eb:7f:ac
-----BEGIN CERTIFICATE-----
MIIDVzCCAj+gAwIBAgIQV8Hj9BQUDmZBlA5F08iQajANBgkqhkiG9w0BAQsFADAW
MRQwEgYDVQQDDAtFYXN5LVJTQSBDQTAeFw0yMTA4MTcxNzA2MzFaFw0yMzExMjAx
NzA2MzFaMBQxEjAQBgNVBAMMCXZtd2FyZXdpbjCCASIwDQYJKoZIhvcNAQEBBQAD
ggEPADCCAQoCggEBAKIF94pHFXL3uHp3V5tQsOwGFwbFxowSFz4y3Runy4w41sAT
DlwZSmukU0zq6Svckzr9cFOHr3xJkTmdCbhd053aga/PYv1RjxQEqn765L1IB+Aw
CGi/GsJEJImaa2wCIjmI95ZBwgsbQ9RWWCB0DWquZBT0Di9T0aTbDSPVB6mkVbnC
hAr2hWtz9oMSdVVBDTPyp4DA/WPmvqgDCHqHQ4iJl8OxAmj5qe4tOr5aoHXnsVdy
zTXk1qbbk/NLyppRdky98jhT4HQtYajAFTKTw6gCi5+Js7XD/4MhatmdW4X4HbT1
zYvcEXgVxo8BnoQMbLB+DQPaT/v5yP5F9znd6hkCAwEAAaOBojCBnzAJBgNVHRME
AjAAMB0GA1UdDgQWBBR5aIFni4DGIKOJzH8IU9V1rQiwITBRBgNVHSMESjBIgBSL
IO8eeaoIVIOJtrY4sPs+eBahYqEapBgwFjEUMBIGA1UEAwwLRWFzeS1SU0EgQ0GC
FHl8divLjifw53OcV2OMNs/meD69MBMGA1UdJQQMMAoGCCsGAQUFBwMCMAsGA1Ud
DwQEAwIHgDANBgkqhkiG9w0BAQsFAAOCAQEAZfAXBVyMng6O8fhtnD1gUriqK9UA
jFUIv877bPWZpltVQQMy6FwiR/LoWAKJfVavllATeEUujntVt7NMWqmWMzU+moWU
U+hV+UullFaHYh0ti1tX1OEfzQMlPlgYMbuPKuCmZQHQMmNw6wkjyGLVYFPgxqDC
dvrPaU/OUqjsRCQ3nv40TdbP64tVVXg8zsL3nl/Bc4GxpqXnXhLhkyaDHz/IpiEe
ENM6+3s8+VD4N32fKH1J1QnDIXONWcj6eF238qvjSeq4jWlEbPQlIoUZJqRekxcs
lJSWWiJgihshV1mZt7k/I7t3IbpG+JFemZiyYiFbFmUxFjYSLY/g6Ot/rA==
-----END CERTIFICATE-----
