Certificate:
    Data:
        Version: 3 (0x2)
        Serial Number:
            5b:8b:e9:50:d3:42:06:f9:fd:65:27:a3:b8:17:51:44
        Signature Algorithm: sha256WithRSAEncryption
        Issuer: CN=Easy-RSA CA
        Validity
            Not Before: Aug 19 02:53:44 2021 GMT
            Not After : Nov 22 02:53:44 2023 GMT
        Subject: CN=next_backend
        Subject Public Key Info:
            Public Key Algorithm: rsaEncryption
                RSA Public-Key: (2048 bit)
                Modulus:
                    00:b7:94:d2:e1:ee:6a:92:47:8b:ca:42:3c:e2:88:
                    c8:46:e7:c6:b6:21:a0:22:9b:e0:b8:89:27:bf:42:
                    6c:c5:a3:b6:35:ab:c9:24:5f:91:e9:15:e9:be:f8:
                    76:e7:3a:d1:5c:ac:7f:9e:50:b7:1c:01:3c:4a:4b:
                    a4:85:ff:77:f1:63:ad:40:a6:2a:07:fd:7d:b1:5e:
                    ad:b8:e8:09:40:e6:ca:7f:48:ba:5d:b9:27:87:00:
                    32:97:78:40:ad:cc:5f:35:8f:53:09:bd:22:3f:04:
                    34:49:61:4a:a2:ef:ed:fb:54:78:ad:78:f1:5e:ec:
                    57:c3:99:0b:85:d4:57:b4:c8:be:7a:04:1e:df:b5:
                    53:bb:f9:d8:11:0e:64:24:67:a7:2b:a2:ed:fb:17:
                    37:1f:c1:a4:c8:24:13:0d:31:9f:8b:d0:fa:f7:7b:
                    ac:ae:a4:e7:57:cf:7c:b6:05:49:e3:c2:d0:24:6d:
                    03:f9:4a:2d:fa:3e:a1:ac:15:e9:9b:81:a2:27:ef:
                    d4:3d:89:13:0a:4e:4f:dc:ed:b5:94:d5:fa:cf:d3:
                    cc:7e:1f:3d:39:e8:cc:cb:67:e8:04:f1:41:75:09:
                    a6:4d:87:46:d3:15:bc:d0:c5:3b:b0:8c:97:99:72:
                    49:38:7a:e5:c0:62:50:9c:0e:68:13:19:a2:c7:4a:
                    dd:5d
                Exponent: 65537 (0x10001)
        X509v3 extensions:
            X509v3 Basic Constraints: 
                CA:FALSE
            X509v3 Subject Key Identifier: 
                AB:A7:28:E2:E2:92:70:1C:93:2D:B1:27:1F:97:E3:17:9E:86:69:D3
            X509v3 Authority Key Identifier: 
                keyid:8B:20:EF:1E:79:AA:08:54:83:89:B6:B6:38:B0:FB:3E:78:16:A1:62
                DirName:/CN=Easy-RSA CA
                serial:79:7C:76:2B:CB:8E:27:F0:E7:73:9C:57:63:8C:36:CF:E6:78:3E:BD

            X509v3 Extended Key Usage: 
                TLS Web Client Authentication
            X509v3 Key Usage: 
                Digital Signature
    Signature Algorithm: sha256WithRSAEncryption
         88:58:a1:2c:f5:05:2c:30:6d:51:7d:df:35:d6:d4:55:5e:26:
         27:6d:5a:d6:6d:3d:52:87:ad:39:2c:5b:26:2c:9e:62:fd:52:
         95:57:25:cb:be:10:ef:8e:26:1b:ee:79:36:cc:42:a2:3c:ff:
         f8:b4:0b:f1:80:25:82:84:61:8b:b9:01:42:6c:48:46:bb:72:
         29:70:88:ca:37:f0:90:cf:4b:8c:63:ec:7e:22:f9:9b:dd:d9:
         ab:d9:04:db:c7:93:9b:88:26:8e:60:0d:44:b6:2b:86:1f:ae:
         a7:d8:6b:43:00:cd:c3:12:7a:ca:91:84:40:a0:7b:93:43:22:
         e1:f9:ba:02:c7:76:d0:ba:40:0f:d5:ea:92:5b:ad:b8:47:18:
         5b:1b:86:b9:cb:f8:54:71:97:5e:3f:74:da:7a:e5:ef:17:0f:
         35:20:e6:af:8f:5c:f0:23:48:a2:ab:42:61:79:fb:b1:1f:b4:
         f6:09:b5:3b:58:7b:a1:ce:08:67:b5:b5:c8:f3:9e:2b:15:5f:
         d4:58:9e:7c:79:da:70:7f:17:9d:79:87:c2:83:81:4e:90:20:
         6f:ae:9d:4b:07:0b:53:50:6b:d8:7b:e7:89:87:84:23:ee:9c:
         b5:e5:74:ae:e0:c6:91:c4:b3:86:63:fd:fd:1d:b4:d2:d9:00:
         b1:72:6c:dd
-----BEGIN CERTIFICATE-----
MIIDWjCCAkKgAwIBAgIQW4vpUNNCBvn9ZSejuBdRRDANBgkqhkiG9w0BAQsFADAW
MRQwEgYDVQQDDAtFYXN5LVJTQSBDQTAeFw0yMTA4MTkwMjUzNDRaFw0yMzExMjIw
MjUzNDRaMBcxFTATBgNVBAMMDG5leHRfYmFja2VuZDCCASIwDQYJKoZIhvcNAQEB
BQADggEPADCCAQoCggEBALeU0uHuapJHi8pCPOKIyEbnxrYhoCKb4LiJJ79CbMWj
tjWrySRfkekV6b74duc60Vysf55QtxwBPEpLpIX/d/FjrUCmKgf9fbFerbjoCUDm
yn9Iul25J4cAMpd4QK3MXzWPUwm9Ij8ENElhSqLv7ftUeK148V7sV8OZC4XUV7TI
vnoEHt+1U7v52BEOZCRnpyui7fsXNx/BpMgkEw0xn4vQ+vd7rK6k51fPfLYFSePC
0CRtA/lKLfo+oawV6ZuBoifv1D2JEwpOT9zttZTV+s/TzH4fPTnozMtn6ATxQXUJ
pk2HRtMVvNDFO7CMl5lySTh65cBiUJwOaBMZosdK3V0CAwEAAaOBojCBnzAJBgNV
HRMEAjAAMB0GA1UdDgQWBBSrpyji4pJwHJMtsScfl+MXnoZp0zBRBgNVHSMESjBI
gBSLIO8eeaoIVIOJtrY4sPs+eBahYqEapBgwFjEUMBIGA1UEAwwLRWFzeS1SU0Eg
Q0GCFHl8divLjifw53OcV2OMNs/meD69MBMGA1UdJQQMMAoGCCsGAQUFBwMCMAsG
A1UdDwQEAwIHgDANBgkqhkiG9w0BAQsFAAOCAQEAiFihLPUFLDBtUX3fNdbUVV4m
J21a1m09UoetOSxbJiyeYv1SlVcly74Q744mG+55NsxCojz/+LQL8YAlgoRhi7kB
QmxIRrtyKXCIyjfwkM9LjGPsfiL5m93Zq9kE28eTm4gmjmANRLYrhh+up9hrQwDN
wxJ6ypGEQKB7k0Mi4fm6Asd20LpAD9XqklutuEcYWxuGucv4VHGXXj902nrl7xcP
NSDmr49c8CNIoqtCYXn7sR+09gm1O1h7oc4IZ7W1yPOeKxVf1FiefHnacH8XnXmH
woOBTpAgb66dSwcLU1Br2HvniYeEI+6cteV0ruDGkcSzhmP9/R200tkAsXJs3Q==
-----END CERTIFICATE-----
