Certificate:
    Data:
        Version: 3 (0x2)
        Serial Number:
            36:c1:34:9a:7d:4d:a4:99:13:5b:48:c7:9a:e7:97:bd
        Signature Algorithm: sha256WithRSAEncryption
        Issuer: CN=Easy-RSA CA
        Validity
            Not Before: May 29 02:57:35 2021 GMT
            Not After : Sep  1 02:57:35 2023 GMT
        Subject: CN=client5
        Subject Public Key Info:
            Public Key Algorithm: rsaEncryption
                RSA Public-Key: (2048 bit)
                Modulus:
                    00:c0:33:d6:3f:f0:9c:41:55:c5:b8:5c:a0:41:a6:
                    87:ab:6d:60:0b:a5:c4:1e:19:f2:94:5c:e6:ba:8e:
                    64:ec:a5:61:76:b9:76:83:a9:23:1d:74:c3:09:21:
                    38:17:20:7a:be:e9:d1:55:de:71:12:69:18:64:72:
                    45:6f:a2:e1:05:78:07:7d:79:f8:c9:57:e9:d0:6a:
                    da:09:f2:b3:8f:de:6a:25:f9:8a:c7:c9:0d:9b:03:
                    b6:63:69:a2:fe:19:90:f7:1e:34:f3:79:dd:78:70:
                    02:5e:3d:cd:73:67:92:e3:3c:62:70:4e:d3:c8:92:
                    92:52:09:ab:48:f9:cb:15:03:c9:d8:d3:31:4e:4b:
                    49:5c:a8:86:e6:95:be:5d:b2:17:60:4c:e5:91:7c:
                    df:b7:1a:a2:e8:ef:46:d3:d3:2e:08:1b:22:27:68:
                    0d:29:2d:f5:8e:97:c2:6f:d5:2c:ad:b4:f1:51:7c:
                    ef:e8:3c:02:6d:c6:e9:34:02:0e:47:11:b3:6c:ac:
                    0c:10:5c:6d:7e:e5:35:50:7c:32:04:c6:79:40:51:
                    2c:d2:27:ba:d9:2d:d5:fc:ee:5d:c9:9c:6a:ee:3d:
                    b0:cb:b0:a2:9f:d0:88:63:59:1e:ab:f2:7c:10:d3:
                    13:e8:6a:bd:c1:e3:5b:c5:d8:fd:37:b7:47:f3:11:
                    58:f7
                Exponent: 65537 (0x10001)
        X509v3 extensions:
            X509v3 Basic Constraints: 
                CA:FALSE
            X509v3 Subject Key Identifier: 
                D2:FB:AA:93:12:97:89:55:5A:75:30:EE:E6:DF:FE:82:96:6B:58:88
            X509v3 Authority Key Identifier: 
                keyid:8B:20:EF:1E:79:AA:08:54:83:89:B6:B6:38:B0:FB:3E:78:16:A1:62
                DirName:/CN=Easy-RSA CA
                serial:79:7C:76:2B:CB:8E:27:F0:E7:73:9C:57:63:8C:36:CF:E6:78:3E:BD

            X509v3 Extended Key Usage: 
                TLS Web Client Authentication
            X509v3 Key Usage: 
                Digital Signature
    Signature Algorithm: sha256WithRSAEncryption
         14:40:cd:07:5a:47:85:05:8b:bd:ec:c8:82:71:bc:f4:76:92:
         66:56:f3:b1:b5:0a:a7:7b:33:72:1b:e7:a4:ab:9a:74:4f:69:
         af:4b:ea:03:6d:b3:3c:f0:ee:00:d6:3a:6a:5c:8b:61:0d:74:
         42:f8:79:e4:a9:f6:8e:d3:e6:8a:fa:b7:b9:b6:49:24:5f:d3:
         2b:1a:de:75:c5:4a:66:fb:b5:e1:19:f3:5c:2f:04:69:78:f0:
         ea:ca:f8:8e:7a:9d:7a:65:30:f8:cb:cb:89:19:4e:c3:d4:d4:
         bb:e9:e3:b6:06:90:15:48:7d:55:c4:d6:9c:4f:80:dc:36:a4:
         08:0e:c2:b1:28:bf:65:5f:cd:9e:d3:68:e9:9e:7d:b4:22:63:
         97:9d:b3:f2:91:b2:ac:be:f5:fc:94:3f:57:d3:b8:72:35:af:
         62:ec:d3:f2:1e:42:63:95:6e:a6:56:ae:62:b3:c5:b4:41:bd:
         28:75:2c:9c:2b:8c:50:07:49:05:34:e8:2a:60:49:f0:ca:38:
         09:1e:d3:8e:dd:40:e7:b3:ec:0c:5a:17:b4:d7:f7:ac:dd:fb:
         3f:94:da:d7:26:61:f4:97:a5:e4:82:52:17:ae:9e:f3:77:8d:
         de:08:39:c1:10:7e:b5:5d:c6:25:b4:9b:51:a5:f6:45:e3:8f:
         a9:b0:32:60
-----BEGIN CERTIFICATE-----
MIIDVTCCAj2gAwIBAgIQNsE0mn1NpJkTW0jHmueXvTANBgkqhkiG9w0BAQsFADAW
MRQwEgYDVQQDDAtFYXN5LVJTQSBDQTAeFw0yMTA1MjkwMjU3MzVaFw0yMzA5MDEw
MjU3MzVaMBIxEDAOBgNVBAMMB2NsaWVudDUwggEiMA0GCSqGSIb3DQEBAQUAA4IB
DwAwggEKAoIBAQDAM9Y/8JxBVcW4XKBBpoerbWALpcQeGfKUXOa6jmTspWF2uXaD
qSMddMMJITgXIHq+6dFV3nESaRhkckVvouEFeAd9efjJV+nQatoJ8rOP3mol+YrH
yQ2bA7ZjaaL+GZD3HjTzed14cAJePc1zZ5LjPGJwTtPIkpJSCatI+csVA8nY0zFO
S0lcqIbmlb5dshdgTOWRfN+3GqLo70bT0y4IGyInaA0pLfWOl8Jv1SyttPFRfO/o
PAJtxuk0Ag5HEbNsrAwQXG1+5TVQfDIExnlAUSzSJ7rZLdX87l3JnGruPbDLsKKf
0IhjWR6r8nwQ0xPoar3B41vF2P03t0fzEVj3AgMBAAGjgaIwgZ8wCQYDVR0TBAIw
ADAdBgNVHQ4EFgQU0vuqkxKXiVVadTDu5t/+gpZrWIgwUQYDVR0jBEowSIAUiyDv
HnmqCFSDiba2OLD7PngWoWKhGqQYMBYxFDASBgNVBAMMC0Vhc3ktUlNBIENBghR5
fHYry44n8OdznFdjjDbP5ng+vTATBgNVHSUEDDAKBggrBgEFBQcDAjALBgNVHQ8E
BAMCB4AwDQYJKoZIhvcNAQELBQADggEBABRAzQdaR4UFi73syIJxvPR2kmZW87G1
Cqd7M3Ib56SrmnRPaa9L6gNtszzw7gDWOmpci2ENdEL4eeSp9o7T5or6t7m2SSRf
0ysa3nXFSmb7teEZ81wvBGl48OrK+I56nXplMPjLy4kZTsPU1Lvp47YGkBVIfVXE
1pxPgNw2pAgOwrEov2VfzZ7TaOmefbQiY5eds/KRsqy+9fyUP1fTuHI1r2Ls0/Ie
QmOVbqZWrmKzxbRBvSh1LJwrjFAHSQU06CpgSfDKOAke047dQOez7AxaF7TX96zd
+z+U2tcmYfSXpeSCUheunvN3jd4IOcEQfrVdxiW0m1Gl9kXjj6mwMmA=
-----END CERTIFICATE-----
