Certificate:
    Data:
        Version: 3 (0x2)
        Serial Number:
            16:af:b4:ef:a4:73:e3:9e:a5:db:20:25:3f:19:73:2d
        Signature Algorithm: sha256WithRSAEncryption
        Issuer: CN=Easy-RSA CA
        Validity
            Not Before: May 29 02:57:47 2021 GMT
            Not After : Sep  1 02:57:47 2023 GMT
        Subject: CN=client6
        Subject Public Key Info:
            Public Key Algorithm: rsaEncryption
                RSA Public-Key: (2048 bit)
                Modulus:
                    00:a6:4e:87:be:39:24:f2:49:39:29:66:dc:b0:e5:
                    12:85:17:5a:80:4b:08:d7:96:4e:61:87:a6:25:00:
                    54:6e:b5:a0:7a:a1:a8:51:58:02:4b:c5:76:42:d9:
                    0e:27:b7:56:a1:13:88:43:85:39:8e:33:d8:4a:ab:
                    c1:dd:8f:c5:f5:85:ad:9d:af:a9:eb:aa:6c:cc:7f:
                    6f:3e:2a:94:21:88:a5:5e:71:79:92:dc:dd:58:3a:
                    4e:d8:74:e9:e5:9f:30:e0:7a:5e:39:08:d2:82:0f:
                    37:ca:f7:dd:98:e1:1e:03:c6:6e:6f:10:7e:38:89:
                    47:c8:ce:75:82:01:27:ea:4b:90:f1:fe:dc:38:ea:
                    d8:cf:83:fe:17:cf:01:86:0d:64:22:6e:eb:ba:b4:
                    4b:79:4b:27:5d:1a:06:97:1d:9a:88:80:4a:87:78:
                    b0:0d:d5:c8:f7:62:77:d1:a8:35:7e:bf:a7:7d:3e:
                    b5:76:f4:7c:2c:56:d8:43:75:a1:92:67:16:ec:58:
                    b1:d4:84:72:9c:89:91:04:12:5f:5d:83:2b:3c:da:
                    51:43:11:9c:8d:86:ea:b7:34:3d:94:c9:21:7f:ea:
                    b1:8a:fe:94:93:12:ac:94:e3:c4:56:04:e9:9f:7e:
                    55:3f:04:57:0d:f4:fc:8c:43:cb:81:bc:bf:79:42:
                    48:81
                Exponent: 65537 (0x10001)
        X509v3 extensions:
            X509v3 Basic Constraints: 
                CA:FALSE
            X509v3 Subject Key Identifier: 
                E8:A0:65:16:40:D7:A4:CF:BA:8C:22:C6:B9:BE:09:A7:AB:1E:3D:68
            X509v3 Authority Key Identifier: 
                keyid:8B:20:EF:1E:79:AA:08:54:83:89:B6:B6:38:B0:FB:3E:78:16:A1:62
                DirName:/CN=Easy-RSA CA
                serial:79:7C:76:2B:CB:8E:27:F0:E7:73:9C:57:63:8C:36:CF:E6:78:3E:BD

            X509v3 Extended Key Usage: 
                TLS Web Client Authentication
            X509v3 Key Usage: 
                Digital Signature
    Signature Algorithm: sha256WithRSAEncryption
         9b:d9:48:49:db:0b:ff:03:62:cd:87:ee:67:04:89:0d:be:9a:
         8a:15:47:ef:d3:f9:26:86:4e:45:e9:3f:1d:5d:c9:45:75:5e:
         ba:32:6b:2f:96:2f:c7:01:c6:c6:b0:79:90:6a:f1:b5:72:79:
         eb:e3:3d:10:16:bc:3f:29:d4:41:b1:2b:4d:07:a1:ae:d4:ef:
         5b:c8:98:ef:bd:e3:be:3d:8d:35:4d:59:c3:45:a9:86:05:89:
         f3:a8:d8:01:c7:96:43:39:36:62:be:14:60:a2:9a:34:45:8d:
         f5:dd:b7:6d:c9:a5:db:9b:9c:f3:ab:8b:14:ab:a6:00:28:67:
         ed:08:43:c6:4b:68:0e:59:f5:bc:bc:d1:30:fd:7b:be:f6:bb:
         df:ef:cf:b9:9f:79:95:11:ed:e8:3b:87:40:bb:22:00:b4:e7:
         2c:05:59:0b:24:0e:8e:5a:05:f2:06:0a:6b:fd:f4:ea:ed:70:
         28:2c:dd:5d:f1:84:e5:dc:e4:db:8d:ef:89:98:9e:17:a3:32:
         ef:c2:af:2d:24:2f:ae:a8:fe:28:cc:2d:77:07:c7:b0:c6:da:
         ce:51:5c:4e:dd:56:39:27:76:14:91:1b:c8:65:c2:2d:c1:8d:
         a0:26:83:a2:ac:5b:bc:f2:3b:bc:ba:84:a7:97:a4:ac:8d:ef:
         8b:31:6e:96
-----BEGIN CERTIFICATE-----
MIIDVTCCAj2gAwIBAgIQFq+076Rz456l2yAlPxlzLTANBgkqhkiG9w0BAQsFADAW
MRQwEgYDVQQDDAtFYXN5LVJTQSBDQTAeFw0yMTA1MjkwMjU3NDdaFw0yMzA5MDEw
MjU3NDdaMBIxEDAOBgNVBAMMB2NsaWVudDYwggEiMA0GCSqGSIb3DQEBAQUAA4IB
DwAwggEKAoIBAQCmToe+OSTySTkpZtyw5RKFF1qASwjXlk5hh6YlAFRutaB6oahR
WAJLxXZC2Q4nt1ahE4hDhTmOM9hKq8Hdj8X1ha2dr6nrqmzMf28+KpQhiKVecXmS
3N1YOk7YdOnlnzDgel45CNKCDzfK992Y4R4Dxm5vEH44iUfIznWCASfqS5Dx/tw4
6tjPg/4XzwGGDWQibuu6tEt5SyddGgaXHZqIgEqHeLAN1cj3YnfRqDV+v6d9PrV2
9HwsVthDdaGSZxbsWLHUhHKciZEEEl9dgys82lFDEZyNhuq3ND2UySF/6rGK/pST
EqyU48RWBOmfflU/BFcN9PyMQ8uBvL95QkiBAgMBAAGjgaIwgZ8wCQYDVR0TBAIw
ADAdBgNVHQ4EFgQU6KBlFkDXpM+6jCLGub4Jp6sePWgwUQYDVR0jBEowSIAUiyDv
HnmqCFSDiba2OLD7PngWoWKhGqQYMBYxFDASBgNVBAMMC0Vhc3ktUlNBIENBghR5
fHYry44n8OdznFdjjDbP5ng+vTATBgNVHSUEDDAKBggrBgEFBQcDAjALBgNVHQ8E
BAMCB4AwDQYJKoZIhvcNAQELBQADggEBAJvZSEnbC/8DYs2H7mcEiQ2+mooVR+/T
+SaGTkXpPx1dyUV1Xroyay+WL8cBxsaweZBq8bVyeevjPRAWvD8p1EGxK00Hoa7U
71vImO+94749jTVNWcNFqYYFifOo2AHHlkM5NmK+FGCimjRFjfXdt23JpdubnPOr
ixSrpgAoZ+0IQ8ZLaA5Z9by80TD9e772u9/vz7mfeZUR7eg7h0C7IgC05ywFWQsk
Do5aBfIGCmv99OrtcCgs3V3xhOXc5NuN74mYnhejMu/Cry0kL66o/ijMLXcHx7DG
2s5RXE7dVjkndhSRG8hlwi3BjaAmg6KsW7zyO7y6hKeXpKyN74sxbpY=
-----END CERTIFICATE-----
