Certificate:
    Data:
        Version: 3 (0x2)
        Serial Number:
            5d:fa:58:7c:e9:00:86:b2:12:6a:cd:07:70:e4:77:ea
        Signature Algorithm: sha256WithRSAEncryption
        Issuer: CN=Easy-RSA CA
        Validity
            Not Before: May 29 02:57:21 2021 GMT
            Not After : Sep  1 02:57:21 2023 GMT
        Subject: CN=client4
        Subject Public Key Info:
            Public Key Algorithm: rsaEncryption
                RSA Public-Key: (2048 bit)
                Modulus:
                    00:dd:c9:f3:b1:1b:4e:6e:40:72:9a:5f:7b:87:f4:
                    52:4a:85:56:60:2e:b2:17:2e:3f:2e:61:39:66:22:
                    0c:5b:5b:87:58:cf:0a:86:60:ed:19:4f:02:0f:44:
                    16:7e:74:8c:70:54:e6:66:8d:8e:73:c4:25:7b:bb:
                    51:d3:b9:18:1a:43:84:38:a2:60:a4:79:e5:dd:a8:
                    cf:96:4c:e7:ff:81:19:67:43:10:d0:d8:0b:b2:71:
                    65:33:97:27:22:d6:11:6b:28:e4:28:94:14:56:20:
                    a1:5e:9b:ed:23:0d:b3:0b:c7:c9:3a:2b:a2:75:52:
                    51:c4:fa:c9:b0:cb:aa:51:1b:e4:10:a1:ea:3b:85:
                    61:ad:e0:e8:ae:6c:1f:74:1b:a5:30:99:80:77:e7:
                    e2:48:a5:4c:3d:4a:65:02:6f:b1:aa:eb:e9:97:e7:
                    0c:91:9b:73:b7:68:da:48:e1:db:c2:b4:10:19:0d:
                    76:c1:82:9c:21:69:fb:de:c9:b7:2c:3c:a6:7a:78:
                    52:a5:b9:6f:66:db:be:54:52:1e:16:30:76:8d:9a:
                    18:7b:b8:6f:97:d4:17:b4:8e:9b:60:e1:34:fe:8c:
                    b9:3a:a8:1d:dd:8a:16:74:6c:62:e1:13:60:dd:fb:
                    78:0d:01:ad:89:e8:74:d7:97:09:64:fc:7b:ef:c4:
                    b0:db
                Exponent: 65537 (0x10001)
        X509v3 extensions:
            X509v3 Basic Constraints: 
                CA:FALSE
            X509v3 Subject Key Identifier: 
                CC:B3:12:E0:07:BF:A7:A6:F8:48:12:0A:AE:EC:B2:FB:93:4F:25:82
            X509v3 Authority Key Identifier: 
                keyid:8B:20:EF:1E:79:AA:08:54:83:89:B6:B6:38:B0:FB:3E:78:16:A1:62
                DirName:/CN=Easy-RSA CA
                serial:79:7C:76:2B:CB:8E:27:F0:E7:73:9C:57:63:8C:36:CF:E6:78:3E:BD

            X509v3 Extended Key Usage: 
                TLS Web Client Authentication
            X509v3 Key Usage: 
                Digital Signature
    Signature Algorithm: sha256WithRSAEncryption
         7b:96:1a:96:02:49:46:50:90:dc:0c:2e:e4:35:6d:c4:97:6b:
         8c:e7:35:38:e6:6a:c9:22:fc:24:90:b1:89:f8:22:07:91:b4:
         b1:55:55:76:7f:ca:59:01:64:af:d8:4d:d0:74:58:ba:70:19:
         1a:52:89:36:0b:a2:35:83:9b:92:0f:0f:fa:79:81:b4:b3:f0:
         ad:ef:e5:be:21:f9:c5:0c:e6:93:a0:91:30:1c:52:d3:a8:f2:
         3e:57:94:97:fc:64:d2:53:eb:89:0a:16:61:9d:9c:05:80:ea:
         ee:82:f4:58:00:01:7c:fa:15:36:3b:90:9f:c1:e6:6a:4e:06:
         86:33:0e:2d:3a:0a:4f:67:bf:b9:11:9f:1e:46:91:86:0f:b2:
         c0:44:e2:06:98:60:c0:5c:1a:d7:ef:f4:1f:fc:6e:2c:e1:d6:
         a7:95:81:af:c1:fe:bf:3c:b5:eb:86:97:c3:0c:54:9c:65:9b:
         ae:67:c6:c7:9a:91:87:34:cc:14:d3:16:63:76:ea:7f:2b:4f:
         cf:04:7a:d0:75:c5:10:0d:8e:91:df:5c:c8:08:22:d4:01:df:
         42:37:2c:36:41:07:fc:40:46:80:f9:33:22:91:55:3c:a0:fd:
         d0:4f:7a:ac:ee:32:7e:55:1e:fc:44:f2:1a:d8:28:0e:9c:e9:
         50:ad:d6:c3
-----BEGIN CERTIFICATE-----
MIIDVTCCAj2gAwIBAgIQXfpYfOkAhrISas0HcOR36jANBgkqhkiG9w0BAQsFADAW
MRQwEgYDVQQDDAtFYXN5LVJTQSBDQTAeFw0yMTA1MjkwMjU3MjFaFw0yMzA5MDEw
MjU3MjFaMBIxEDAOBgNVBAMMB2NsaWVudDQwggEiMA0GCSqGSIb3DQEBAQUAA4IB
DwAwggEKAoIBAQDdyfOxG05uQHKaX3uH9FJKhVZgLrIXLj8uYTlmIgxbW4dYzwqG
YO0ZTwIPRBZ+dIxwVOZmjY5zxCV7u1HTuRgaQ4Q4omCkeeXdqM+WTOf/gRlnQxDQ
2AuycWUzlyci1hFrKOQolBRWIKFem+0jDbMLx8k6K6J1UlHE+smwy6pRG+QQoeo7
hWGt4OiubB90G6UwmYB35+JIpUw9SmUCb7Gq6+mX5wyRm3O3aNpI4dvCtBAZDXbB
gpwhafveybcsPKZ6eFKluW9m275UUh4WMHaNmhh7uG+X1Be0jptg4TT+jLk6qB3d
ihZ0bGLhE2Dd+3gNAa2J6HTXlwlk/HvvxLDbAgMBAAGjgaIwgZ8wCQYDVR0TBAIw
ADAdBgNVHQ4EFgQUzLMS4Ae/p6b4SBIKruyy+5NPJYIwUQYDVR0jBEowSIAUiyDv
HnmqCFSDiba2OLD7PngWoWKhGqQYMBYxFDASBgNVBAMMC0Vhc3ktUlNBIENBghR5
fHYry44n8OdznFdjjDbP5ng+vTATBgNVHSUEDDAKBggrBgEFBQcDAjALBgNVHQ8E
BAMCB4AwDQYJKoZIhvcNAQELBQADggEBAHuWGpYCSUZQkNwMLuQ1bcSXa4znNTjm
aski/CSQsYn4IgeRtLFVVXZ/ylkBZK/YTdB0WLpwGRpSiTYLojWDm5IPD/p5gbSz
8K3v5b4h+cUM5pOgkTAcUtOo8j5XlJf8ZNJT64kKFmGdnAWA6u6C9FgAAXz6FTY7
kJ/B5mpOBoYzDi06Ck9nv7kRnx5GkYYPssBE4gaYYMBcGtfv9B/8bizh1qeVga/B
/r88teuGl8MMVJxlm65nxseakYc0zBTTFmN26n8rT88EetB1xRANjpHfXMgIItQB
30I3LDZBB/xARoD5MyKRVTyg/dBPeqzuMn5VHvxE8hrYKA6c6VCt1sM=
-----END CERTIFICATE-----
