Certificate:
    Data:
        Version: 3 (0x2)
        Serial Number:
            6a:f1:02:7e:2e:c2:0b:56:c7:df:d1:b9:11:2a:54:0c
        Signature Algorithm: sha256WithRSAEncryption
        Issuer: CN=Easy-RSA CA
        Validity
            Not Before: May 29 02:57:06 2021 GMT
            Not After : Sep  1 02:57:06 2023 GMT
        Subject: CN=client3
        Subject Public Key Info:
            Public Key Algorithm: rsaEncryption
                RSA Public-Key: (2048 bit)
                Modulus:
                    00:b0:38:05:4f:6b:da:74:03:8c:10:68:0a:42:08:
                    fc:1b:dc:27:bc:28:5e:98:35:04:a1:37:f4:a4:a1:
                    8f:a2:06:d5:bf:06:ee:34:9d:ff:ba:6a:c7:98:59:
                    9d:f7:04:5e:78:68:3d:53:f8:34:3f:28:62:fe:79:
                    28:9f:a8:b0:9e:d1:06:fc:17:c0:0d:8c:b9:cd:a1:
                    82:fe:aa:20:71:be:25:09:6a:ac:b8:6f:27:18:62:
                    13:0f:25:b8:45:30:7c:6d:b4:d8:ec:d0:45:f8:3c:
                    66:1d:9e:87:a7:76:c6:40:4b:8f:ef:ae:e2:9c:a9:
                    22:58:01:90:48:e0:eb:2f:f1:9b:91:8d:e0:9d:51:
                    a1:cd:83:3a:4a:1a:9c:32:00:84:ed:a0:26:a8:be:
                    65:51:aa:6c:76:96:2d:1d:b4:b5:76:9d:35:e5:4e:
                    07:b4:14:71:d2:25:16:cf:6a:b4:fb:17:43:f6:dc:
                    f4:1c:48:ea:6e:64:ac:fa:01:34:09:06:a1:4d:82:
                    46:59:a1:da:d2:71:b2:a1:66:33:02:97:23:83:d6:
                    54:5c:e9:f9:8e:0b:0d:9e:e3:5f:c2:a3:27:06:96:
                    55:a0:9a:de:d5:86:9f:eb:24:e6:75:4d:5a:f2:0c:
                    98:3d:cc:b0:16:f9:f6:60:8f:bf:cd:4f:39:fa:a2:
                    f1:d9
                Exponent: 65537 (0x10001)
        X509v3 extensions:
            X509v3 Basic Constraints: 
                CA:FALSE
            X509v3 Subject Key Identifier: 
                C2:F6:70:2E:BB:43:8E:7C:CA:91:86:29:F3:F9:C5:E9:3C:3B:A9:83
            X509v3 Authority Key Identifier: 
                keyid:8B:20:EF:1E:79:AA:08:54:83:89:B6:B6:38:B0:FB:3E:78:16:A1:62
                DirName:/CN=Easy-RSA CA
                serial:79:7C:76:2B:CB:8E:27:F0:E7:73:9C:57:63:8C:36:CF:E6:78:3E:BD

            X509v3 Extended Key Usage: 
                TLS Web Client Authentication
            X509v3 Key Usage: 
                Digital Signature
    Signature Algorithm: sha256WithRSAEncryption
         4c:0c:36:89:74:54:21:f1:13:be:de:43:2d:17:e4:59:69:70:
         13:b7:9c:d3:e5:55:55:ad:34:47:58:ae:ad:8a:7e:cc:79:3a:
         e6:fa:2b:13:bc:a9:f8:ec:ba:b8:ef:ed:17:60:84:b7:87:3e:
         ee:02:51:3c:1f:bc:ef:e6:bd:09:0a:69:38:61:5f:e4:0e:ec:
         90:70:1e:b3:8d:1d:53:11:36:e4:b0:35:ba:41:41:e6:c6:87:
         db:77:61:b8:03:cb:82:a4:74:90:66:8d:63:30:4b:71:31:81:
         cb:fe:29:0e:c5:d8:b3:d5:9b:b7:db:2e:2d:10:35:23:ce:0d:
         c2:7e:5a:ba:2d:06:d3:3b:af:0a:5e:ef:ed:17:fd:5c:b6:a1:
         29:e8:ff:c7:2b:50:1c:56:0b:20:0c:47:70:c3:22:b8:7a:48:
         cf:7d:cc:35:2e:a8:ae:aa:c0:92:07:0c:7c:28:73:5c:80:49:
         e6:30:79:3a:10:70:78:86:44:01:65:68:a6:57:c0:64:c0:b8:
         0e:ff:63:3e:07:e5:6d:dd:d5:06:e5:68:3c:c3:86:10:b2:15:
         6d:df:95:0b:ae:a1:e5:74:64:82:d1:db:ed:f2:33:09:7d:66:
         bb:2c:b4:88:2c:d1:b1:67:65:ab:9f:6c:80:73:e0:26:47:c5:
         31:34:6c:60
-----BEGIN CERTIFICATE-----
MIIDVTCCAj2gAwIBAgIQavECfi7CC1bH39G5ESpUDDANBgkqhkiG9w0BAQsFADAW
MRQwEgYDVQQDDAtFYXN5LVJTQSBDQTAeFw0yMTA1MjkwMjU3MDZaFw0yMzA5MDEw
MjU3MDZaMBIxEDAOBgNVBAMMB2NsaWVudDMwggEiMA0GCSqGSIb3DQEBAQUAA4IB
DwAwggEKAoIBAQCwOAVPa9p0A4wQaApCCPwb3Ce8KF6YNQShN/SkoY+iBtW/Bu40
nf+6aseYWZ33BF54aD1T+DQ/KGL+eSifqLCe0Qb8F8ANjLnNoYL+qiBxviUJaqy4
bycYYhMPJbhFMHxttNjs0EX4PGYdnoendsZAS4/vruKcqSJYAZBI4Osv8ZuRjeCd
UaHNgzpKGpwyAITtoCaovmVRqmx2li0dtLV2nTXlTge0FHHSJRbParT7F0P23PQc
SOpuZKz6ATQJBqFNgkZZodrScbKhZjMClyOD1lRc6fmOCw2e41/CoycGllWgmt7V
hp/rJOZ1TVryDJg9zLAW+fZgj7/NTzn6ovHZAgMBAAGjgaIwgZ8wCQYDVR0TBAIw
ADAdBgNVHQ4EFgQUwvZwLrtDjnzKkYYp8/nF6Tw7qYMwUQYDVR0jBEowSIAUiyDv
HnmqCFSDiba2OLD7PngWoWKhGqQYMBYxFDASBgNVBAMMC0Vhc3ktUlNBIENBghR5
fHYry44n8OdznFdjjDbP5ng+vTATBgNVHSUEDDAKBggrBgEFBQcDAjALBgNVHQ8E
BAMCB4AwDQYJKoZIhvcNAQELBQADggEBAEwMNol0VCHxE77eQy0X5FlpcBO3nNPl
VVWtNEdYrq2Kfsx5Oub6KxO8qfjsurjv7RdghLeHPu4CUTwfvO/mvQkKaThhX+QO
7JBwHrONHVMRNuSwNbpBQebGh9t3YbgDy4KkdJBmjWMwS3Exgcv+KQ7F2LPVm7fb
Li0QNSPODcJ+WrotBtM7rwpe7+0X/Vy2oSno/8crUBxWCyAMR3DDIrh6SM99zDUu
qK6qwJIHDHwoc1yASeYweToQcHiGRAFlaKZXwGTAuA7/Yz4H5W3d1QblaDzDhhCy
FW3flQuuoeV0ZILR2+3yMwl9ZrsstIgs0bFnZaufbIBz4CZHxTE0bGA=
-----END CERTIFICATE-----
