Certificate:
    Data:
        Version: 3 (0x2)
        Serial Number:
            7a:2f:4e:55:ea:f1:45:0e:7e:59:3c:1c:30:86:80:69
        Signature Algorithm: sha256WithRSAEncryption
        Issuer: CN=Easy-RSA CA
        Validity
            Not Before: May 29 10:25:25 2021 GMT
            Not After : Sep  1 10:25:25 2023 GMT
        Subject: CN=lan_web
        Subject Public Key Info:
            Public Key Algorithm: rsaEncryption
                RSA Public-Key: (2048 bit)
                Modulus:
                    00:b4:24:23:7a:dd:cb:01:53:bd:9f:02:74:42:85:
                    49:50:f7:4a:52:e8:bf:44:df:a9:ba:41:18:66:91:
                    d2:d7:2b:e0:4f:83:27:01:de:eb:9c:79:97:4e:6d:
                    91:f4:0e:49:9b:b8:9b:8e:3f:f7:12:5d:aa:e5:5b:
                    b4:04:6d:bd:97:10:77:21:b0:d1:16:b8:8b:46:0c:
                    d8:fe:5c:cc:2f:cc:fc:2f:fd:d9:85:0b:50:16:95:
                    34:fa:04:f3:ed:0d:4a:d9:67:0e:34:3b:f5:ea:bb:
                    77:1b:4b:cb:b0:4f:78:8a:0a:63:40:3d:e7:c8:71:
                    ba:23:55:59:d9:e5:e1:f6:60:eb:ef:04:a5:b6:aa:
                    70:41:d8:a9:36:ca:41:64:39:c9:e4:b1:1f:5c:fa:
                    4c:73:5f:1e:ae:92:af:af:ca:69:e5:fd:52:d7:dd:
                    95:12:bb:f9:37:2f:8a:3d:d7:76:a9:38:3e:e7:46:
                    5d:d0:99:b0:7a:bd:5f:99:da:7e:6f:7f:2d:c2:2b:
                    04:e4:d9:14:81:68:b3:d8:a6:ed:71:44:0f:01:b4:
                    90:dc:f8:ba:ae:fe:cc:64:ca:32:c9:03:03:5a:94:
                    45:d9:f1:70:fa:3b:79:d1:39:bc:d0:2a:cf:e7:4a:
                    ba:cd:ca:2f:74:df:59:69:ab:20:80:17:84:88:a9:
                    27:f5
                Exponent: 65537 (0x10001)
        X509v3 extensions:
            X509v3 Basic Constraints: 
                CA:FALSE
            X509v3 Subject Key Identifier: 
                8C:20:8F:25:57:94:A7:5B:5E:0E:7C:FA:96:DD:DE:36:A6:23:4D:BB
            X509v3 Authority Key Identifier: 
                keyid:8B:20:EF:1E:79:AA:08:54:83:89:B6:B6:38:B0:FB:3E:78:16:A1:62
                DirName:/CN=Easy-RSA CA
                serial:79:7C:76:2B:CB:8E:27:F0:E7:73:9C:57:63:8C:36:CF:E6:78:3E:BD

            X509v3 Extended Key Usage: 
                TLS Web Client Authentication
            X509v3 Key Usage: 
                Digital Signature
    Signature Algorithm: sha256WithRSAEncryption
         81:90:cf:2d:89:31:2a:dc:27:33:e9:ec:6c:aa:55:3d:df:39:
         25:fa:ef:68:fc:3c:cd:81:6b:e8:34:cd:89:d3:74:6f:6c:e9:
         e7:f7:da:f3:4f:64:53:fb:22:47:18:6e:f8:93:ed:fc:62:20:
         d5:60:10:b7:81:8e:33:9a:e9:b9:d3:8e:36:de:25:78:26:59:
         52:0b:ef:d1:a6:a2:fd:c7:5b:bb:ad:21:8b:79:50:14:68:df:
         17:c0:62:84:a6:b6:44:79:20:cd:26:21:90:dd:09:76:40:c2:
         7a:6d:c2:1a:4a:a7:07:1d:47:b0:d3:4b:5e:1b:f2:a6:0f:ac:
         45:f8:70:47:43:63:e8:88:93:9b:54:54:54:85:44:ee:2f:f5:
         54:d2:e2:be:3d:ab:22:3d:5f:6b:f8:d2:2a:89:94:c4:2b:f1:
         c2:1e:14:57:70:4c:86:04:90:7d:b0:b1:d7:5d:b4:36:c6:4a:
         74:0a:2b:68:89:61:5a:b1:1e:8c:79:d7:9f:cc:23:de:25:55:
         5a:47:96:36:43:64:20:f0:e4:ce:99:69:68:31:fd:02:d0:e9:
         56:87:42:11:41:8a:79:2e:16:50:64:72:fb:bc:95:ea:16:24:
         8f:85:da:cd:5a:fa:29:77:46:22:1c:02:e9:fb:47:a0:1d:3f:
         36:61:ff:4e
-----BEGIN CERTIFICATE-----
MIIDVTCCAj2gAwIBAgIQei9OVerxRQ5+WTwcMIaAaTANBgkqhkiG9w0BAQsFADAW
MRQwEgYDVQQDDAtFYXN5LVJTQSBDQTAeFw0yMTA1MjkxMDI1MjVaFw0yMzA5MDEx
MDI1MjVaMBIxEDAOBgNVBAMMB2xhbl93ZWIwggEiMA0GCSqGSIb3DQEBAQUAA4IB
DwAwggEKAoIBAQC0JCN63csBU72fAnRChUlQ90pS6L9E36m6QRhmkdLXK+BPgycB
3uuceZdObZH0DkmbuJuOP/cSXarlW7QEbb2XEHchsNEWuItGDNj+XMwvzPwv/dmF
C1AWlTT6BPPtDUrZZw40O/Xqu3cbS8uwT3iKCmNAPefIcbojVVnZ5eH2YOvvBKW2
qnBB2Kk2ykFkOcnksR9c+kxzXx6ukq+vymnl/VLX3ZUSu/k3L4o913apOD7nRl3Q
mbB6vV+Z2n5vfy3CKwTk2RSBaLPYpu1xRA8BtJDc+Lqu/sxkyjLJAwNalEXZ8XD6
O3nRObzQKs/nSrrNyi9031lpqyCAF4SIqSf1AgMBAAGjgaIwgZ8wCQYDVR0TBAIw
ADAdBgNVHQ4EFgQUjCCPJVeUp1teDnz6lt3eNqYjTbswUQYDVR0jBEowSIAUiyDv
HnmqCFSDiba2OLD7PngWoWKhGqQYMBYxFDASBgNVBAMMC0Vhc3ktUlNBIENBghR5
fHYry44n8OdznFdjjDbP5ng+vTATBgNVHSUEDDAKBggrBgEFBQcDAjALBgNVHQ8E
BAMCB4AwDQYJKoZIhvcNAQELBQADggEBAIGQzy2JMSrcJzPp7GyqVT3fOSX672j8
PM2Ba+g0zYnTdG9s6ef32vNPZFP7IkcYbviT7fxiINVgELeBjjOa6bnTjjbeJXgm
WVIL79Gmov3HW7utIYt5UBRo3xfAYoSmtkR5IM0mIZDdCXZAwnptwhpKpwcdR7DT
S14b8qYPrEX4cEdDY+iIk5tUVFSFRO4v9VTS4r49qyI9X2v40iqJlMQr8cIeFFdw
TIYEkH2wsdddtDbGSnQKK2iJYVqxHox515/MI94lVVpHljZDZCDw5M6ZaWgx/QLQ
6VaHQhFBinkuFlBkcvu8leoWJI+F2s1a+il3RiIcAun7R6AdPzZh/04=
-----END CERTIFICATE-----
