Certificate:
    Data:
        Version: 3 (0x2)
        Serial Number:
            1e:0a:12:b1:d2:0c:bc:5d:67:4e:65:07:3a:ae:56:63
        Signature Algorithm: sha256WithRSAEncryption
        Issuer: CN=Easy-RSA CA
        Validity
            Not Before: May 28 02:12:27 2021 GMT
            Not After : Aug 31 02:12:27 2023 GMT
        Subject: CN=client2
        Subject Public Key Info:
            Public Key Algorithm: rsaEncryption
                RSA Public-Key: (2048 bit)
                Modulus:
                    00:a5:61:7e:9e:bc:8e:32:ff:76:c8:d8:48:58:42:
                    86:77:8d:94:78:55:c1:b6:2e:30:22:05:6c:45:13:
                    18:72:4d:be:69:8e:6e:2e:75:f8:e3:7d:f2:3a:ad:
                    5e:23:62:01:26:5d:ed:6f:dc:a8:ae:93:b9:d8:30:
                    de:a3:2b:26:1f:b2:17:b6:3d:71:4b:06:ef:f6:c4:
                    53:af:58:31:4a:16:8c:74:84:04:5a:d5:90:b7:10:
                    4e:a2:85:25:e9:a2:52:f2:93:cd:0b:2b:fe:32:bc:
                    4e:78:61:f9:90:0a:8f:4f:18:bf:27:91:a4:ab:b6:
                    e8:36:87:36:71:6b:f4:65:8d:86:0f:59:8e:c8:f1:
                    13:4d:97:0f:c0:f2:d3:9c:94:2d:3b:91:ba:15:cf:
                    ac:f9:1c:9a:bc:cd:da:9f:01:4e:c7:05:76:54:0d:
                    bb:85:0f:29:e3:42:56:08:8c:51:c4:f9:07:9a:0a:
                    27:6c:7f:ec:2f:ab:13:37:b1:35:29:24:d7:c2:9c:
                    ff:06:58:c4:a9:22:a0:f2:9a:af:a5:d8:ac:22:0d:
                    7c:ef:5a:93:f7:9d:bc:2a:16:fa:14:cc:71:d3:12:
                    03:61:80:ab:5c:dd:7a:19:ae:25:5c:ae:48:37:11:
                    48:25:75:cf:3f:55:7d:da:ae:af:11:3c:03:35:56:
                    47:31
                Exponent: 65537 (0x10001)
        X509v3 extensions:
            X509v3 Basic Constraints: 
                CA:FALSE
            X509v3 Subject Key Identifier: 
                30:D8:4A:82:98:8E:B2:08:BF:EE:43:52:20:25:AA:6A:D7:33:66:BB
            X509v3 Authority Key Identifier: 
                keyid:8B:20:EF:1E:79:AA:08:54:83:89:B6:B6:38:B0:FB:3E:78:16:A1:62
                DirName:/CN=Easy-RSA CA
                serial:79:7C:76:2B:CB:8E:27:F0:E7:73:9C:57:63:8C:36:CF:E6:78:3E:BD

            X509v3 Extended Key Usage: 
                TLS Web Client Authentication
            X509v3 Key Usage: 
                Digital Signature
    Signature Algorithm: sha256WithRSAEncryption
         a9:ae:83:31:a1:1b:a2:92:b5:72:4a:a0:6c:9e:2d:b1:10:f6:
         5c:d2:1d:81:36:39:ef:85:96:94:e8:6b:3d:44:77:7a:17:36:
         74:db:6c:bc:56:8b:68:d4:e7:01:07:83:f4:db:b2:dd:de:81:
         32:21:35:1f:0a:14:c2:5d:22:06:c2:a7:cc:c3:2d:4c:35:a7:
         8b:79:54:ef:76:cb:b2:ec:c0:61:1b:e1:fd:e9:ad:24:8e:e2:
         97:ec:24:06:c6:f5:52:02:df:f6:46:56:f5:19:d5:26:d1:c9:
         41:1c:9e:91:65:7f:df:42:15:3e:28:5e:f5:cd:5d:03:69:d9:
         a9:ce:e0:f1:be:86:d8:9d:57:38:56:ad:03:65:48:91:a9:99:
         ad:9a:80:9c:10:c1:f9:f0:0f:df:fa:52:80:68:c9:51:92:77:
         4a:1a:8e:f4:1b:32:d7:35:ca:dd:c6:49:ef:a6:a1:4b:67:2d:
         d7:8f:8c:a9:1e:1f:13:e8:77:22:7d:ed:86:2a:1e:06:9e:19:
         42:9c:e6:65:ea:b7:8e:8c:d4:0f:bb:56:66:ce:43:8f:49:62:
         5b:2d:f8:35:8e:3b:3f:cb:48:e1:f1:48:ad:be:9b:65:f5:85:
         04:22:6f:02:43:b1:a3:5f:18:63:06:77:0f:4e:d5:bc:e9:c0:
         65:98:5a:17
-----BEGIN CERTIFICATE-----
MIIDVTCCAj2gAwIBAgIQHgoSsdIMvF1nTmUHOq5WYzANBgkqhkiG9w0BAQsFADAW
MRQwEgYDVQQDDAtFYXN5LVJTQSBDQTAeFw0yMTA1MjgwMjEyMjdaFw0yMzA4MzEw
MjEyMjdaMBIxEDAOBgNVBAMMB2NsaWVudDIwggEiMA0GCSqGSIb3DQEBAQUAA4IB
DwAwggEKAoIBAQClYX6evI4y/3bI2EhYQoZ3jZR4VcG2LjAiBWxFExhyTb5pjm4u
dfjjffI6rV4jYgEmXe1v3Kiuk7nYMN6jKyYfshe2PXFLBu/2xFOvWDFKFox0hARa
1ZC3EE6ihSXpolLyk80LK/4yvE54YfmQCo9PGL8nkaSrtug2hzZxa/RljYYPWY7I
8RNNlw/A8tOclC07kboVz6z5HJq8zdqfAU7HBXZUDbuFDynjQlYIjFHE+QeaCids
f+wvqxM3sTUpJNfCnP8GWMSpIqDymq+l2KwiDXzvWpP3nbwqFvoUzHHTEgNhgKtc
3XoZriVcrkg3EUgldc8/VX3arq8RPAM1VkcxAgMBAAGjgaIwgZ8wCQYDVR0TBAIw
ADAdBgNVHQ4EFgQUMNhKgpiOsgi/7kNSICWqatczZrswUQYDVR0jBEowSIAUiyDv
HnmqCFSDiba2OLD7PngWoWKhGqQYMBYxFDASBgNVBAMMC0Vhc3ktUlNBIENBghR5
fHYry44n8OdznFdjjDbP5ng+vTATBgNVHSUEDDAKBggrBgEFBQcDAjALBgNVHQ8E
BAMCB4AwDQYJKoZIhvcNAQELBQADggEBAKmugzGhG6KStXJKoGyeLbEQ9lzSHYE2
Oe+FlpToaz1Ed3oXNnTbbLxWi2jU5wEHg/Tbst3egTIhNR8KFMJdIgbCp8zDLUw1
p4t5VO92y7LswGEb4f3prSSO4pfsJAbG9VIC3/ZGVvUZ1SbRyUEcnpFlf99CFT4o
XvXNXQNp2anO4PG+htidVzhWrQNlSJGpma2agJwQwfnwD9/6UoBoyVGSd0oajvQb
Mtc1yt3GSe+moUtnLdePjKkeHxPodyJ97YYqHgaeGUKc5mXqt46M1A+7VmbOQ49J
Ylst+DWOOz/LSOHxSK2+m2X1hQQibwJDsaNfGGMGdw9O1bzpwGWYWhc=
-----END CERTIFICATE-----
