Certificate:
    Data:
        Version: 3 (0x2)
        Serial Number:
            f3:3a:a5:ee:fb:1e:da:62:cf:24:f7:9b:e3:8f:0c
        Signature Algorithm: sha256WithRSAEncryption
        Issuer: CN=Easy-RSA CA
        Validity
            Not Before: Aug 15 18:33:44 2021 GMT
            Not After : Nov 18 18:33:44 2023 GMT
        Subject: CN=clash_direct
        Subject Public Key Info:
            Public Key Algorithm: rsaEncryption
                RSA Public-Key: (2048 bit)
                Modulus:
                    00:bd:d8:64:ee:ca:b5:d1:ce:d9:a0:0d:28:b6:c5:
                    32:58:16:d4:f4:be:32:a0:1e:1d:da:ce:3e:b1:db:
                    13:41:e4:a2:07:25:e5:e0:23:3c:8a:b1:c5:c0:99:
                    c9:ef:a0:5c:64:5f:9e:95:c9:96:b6:cd:f4:f5:bd:
                    cf:77:30:e2:9b:61:47:e1:93:1b:9d:cf:45:a0:36:
                    5c:cc:76:92:30:bc:0c:4e:46:c6:5c:fb:fc:aa:d4:
                    74:82:22:9f:4e:d0:36:14:87:ed:96:7a:0a:e0:fa:
                    d8:4f:f8:1d:a5:75:96:e8:c3:62:56:df:cd:ab:ee:
                    9b:21:d4:cb:38:2e:b1:7b:44:cc:03:44:d4:2c:a5:
                    ad:e3:6c:63:f9:e6:cc:bc:1b:13:25:70:5f:5a:b0:
                    fd:99:56:25:ba:d6:a4:77:b8:66:37:0c:1a:d7:01:
                    38:a2:45:33:6a:54:0b:36:46:b3:f9:22:f2:ca:bc:
                    cf:d1:5b:d9:63:9b:b6:73:21:28:63:b6:dd:f4:0c:
                    4b:f5:56:b8:63:fd:6b:ef:9f:77:02:41:12:7d:c9:
                    72:d0:1f:c9:a7:26:c3:89:f5:c0:d8:be:94:38:be:
                    2f:e1:90:91:89:ce:9d:6c:71:7a:74:e0:f6:85:e9:
                    bf:b9:d2:3a:5a:6b:41:80:60:2b:cd:80:5a:62:7b:
                    ad:db
                Exponent: 65537 (0x10001)
        X509v3 extensions:
            X509v3 Basic Constraints: 
                CA:FALSE
            X509v3 Subject Key Identifier: 
                DC:98:87:EF:8B:2A:9F:CE:74:C0:82:A1:BE:92:F9:0D:78:98:5B:68
            X509v3 Authority Key Identifier: 
                keyid:8B:20:EF:1E:79:AA:08:54:83:89:B6:B6:38:B0:FB:3E:78:16:A1:62
                DirName:/CN=Easy-RSA CA
                serial:79:7C:76:2B:CB:8E:27:F0:E7:73:9C:57:63:8C:36:CF:E6:78:3E:BD

            X509v3 Extended Key Usage: 
                TLS Web Client Authentication
            X509v3 Key Usage: 
                Digital Signature
    Signature Algorithm: sha256WithRSAEncryption
         26:42:db:0d:4c:bd:c2:fe:19:1a:d8:4e:4f:52:5c:06:2c:f9:
         16:bb:2c:d7:97:49:f7:d8:5e:6d:dd:7b:f0:09:1c:2a:8b:c8:
         27:22:3c:e1:46:79:fd:05:33:b7:47:cb:2a:31:19:03:29:8a:
         51:47:5a:9d:bb:60:b6:cc:74:23:d9:c0:70:1f:9a:44:30:29:
         0c:23:64:7a:b1:f9:15:dd:8e:aa:f7:0a:5d:33:a8:99:c4:58:
         f4:4c:38:41:18:4d:78:22:c2:0f:75:83:7b:02:6c:7f:f9:98:
         00:cc:3b:f4:2c:f3:82:0b:81:f5:8b:b9:bb:25:86:85:41:30:
         26:c0:8f:7e:47:f5:60:91:ce:8b:51:2c:9e:82:1f:b7:da:7a:
         3a:18:69:95:d1:20:76:ac:8a:16:83:d2:ba:b8:73:98:81:7a:
         e6:bd:0d:0b:b5:2e:1c:dd:9a:c8:2d:9c:bc:2a:2d:02:0a:1f:
         59:76:31:13:7a:d6:e6:03:d2:01:0a:12:d1:c6:bd:76:a7:da:
         1f:d9:fe:bb:ce:0d:59:be:8f:c0:e6:e5:f3:d9:f4:ce:e6:32:
         b1:4a:8a:ef:7e:55:66:e7:eb:0c:05:e3:1d:6e:fb:d9:4b:08:
         00:ff:67:31:58:6f:9a:03:72:90:99:f0:5d:39:7c:21:60:19:
         79:e6:b3:c0
-----BEGIN CERTIFICATE-----
MIIDWjCCAkKgAwIBAgIQAPM6pe77HtpizyT3m+OPDDANBgkqhkiG9w0BAQsFADAW
MRQwEgYDVQQDDAtFYXN5LVJTQSBDQTAeFw0yMTA4MTUxODMzNDRaFw0yMzExMTgx
ODMzNDRaMBcxFTATBgNVBAMMDGNsYXNoX2RpcmVjdDCCASIwDQYJKoZIhvcNAQEB
BQADggEPADCCAQoCggEBAL3YZO7KtdHO2aANKLbFMlgW1PS+MqAeHdrOPrHbE0Hk
ogcl5eAjPIqxxcCZye+gXGRfnpXJlrbN9PW9z3cw4pthR+GTG53PRaA2XMx2kjC8
DE5Gxlz7/KrUdIIin07QNhSH7ZZ6CuD62E/4HaV1lujDYlbfzavumyHUyzgusXtE
zANE1CylreNsY/nmzLwbEyVwX1qw/ZlWJbrWpHe4ZjcMGtcBOKJFM2pUCzZGs/ki
8sq8z9Fb2WObtnMhKGO23fQMS/VWuGP9a++fdwJBEn3JctAfyacmw4n1wNi+lDi+
L+GQkYnOnWxxenTg9oXpv7nSOlprQYBgK82AWmJ7rdsCAwEAAaOBojCBnzAJBgNV
HRMEAjAAMB0GA1UdDgQWBBTcmIfviyqfznTAgqG+kvkNeJhbaDBRBgNVHSMESjBI
gBSLIO8eeaoIVIOJtrY4sPs+eBahYqEapBgwFjEUMBIGA1UEAwwLRWFzeS1SU0Eg
Q0GCFHl8divLjifw53OcV2OMNs/meD69MBMGA1UdJQQMMAoGCCsGAQUFBwMCMAsG
A1UdDwQEAwIHgDANBgkqhkiG9w0BAQsFAAOCAQEAJkLbDUy9wv4ZGthOT1JcBiz5
Frss15dJ99hebd178AkcKovIJyI84UZ5/QUzt0fLKjEZAymKUUdanbtgtsx0I9nA
cB+aRDApDCNkerH5Fd2OqvcKXTOomcRY9Ew4QRhNeCLCD3WDewJsf/mYAMw79Czz
gguB9Yu5uyWGhUEwJsCPfkf1YJHOi1EsnoIft9p6OhhpldEgdqyKFoPSurhzmIF6
5r0NC7UuHN2ayC2cvCotAgofWXYxE3rW5gPSAQoS0ca9dqfaH9n+u84NWb6PwObl
89n0zuYysUqK735VZufrDAXjHW772UsIAP9nMVhvmgNykJnwXTl8IWAZeeazwA==
-----END CERTIFICATE-----
