Certificate:
    Data:
        Version: 3 (0x2)
        Serial Number:
            7e:ce:e2:6a:3f:81:b1:d6:15:1c:13:a7:22:1f:55:30
        Signature Algorithm: sha256WithRSAEncryption
        Issuer: CN=Easy-RSA CA
        Validity
            Not Before: Aug 15 05:06:08 2021 GMT
            Not After : Nov 18 05:06:08 2023 GMT
        Subject: CN=android1
        Subject Public Key Info:
            Public Key Algorithm: rsaEncryption
                RSA Public-Key: (2048 bit)
                Modulus:
                    00:dd:97:83:34:29:98:3d:8f:a1:fe:60:33:5f:92:
                    eb:a8:92:02:b7:f6:1e:f4:89:22:23:4d:43:63:96:
                    3a:55:7b:45:25:f4:4e:4b:cf:c5:ec:c8:dc:ef:ac:
                    af:f1:dc:f6:ee:7a:84:f4:07:bc:7b:e4:ed:8f:2f:
                    04:04:7e:17:25:63:a2:90:bd:5c:21:9b:e9:e6:05:
                    be:e3:71:ed:d6:7c:af:79:4f:e2:e0:75:62:1e:1d:
                    8b:b5:1b:28:de:b7:e9:5c:05:49:4b:78:62:76:35:
                    b2:1d:fe:c6:e8:ac:4c:e7:c8:12:9f:bf:ac:a7:f6:
                    6c:92:d8:e1:c7:33:1e:ca:28:d7:15:d0:90:85:80:
                    46:eb:ef:23:59:60:f5:8b:06:29:cb:50:eb:7d:ba:
                    be:19:62:5c:68:0f:16:f6:a1:fb:a5:eb:7a:d5:7a:
                    e5:77:11:3c:64:6c:ef:c5:11:73:01:4a:5e:19:7e:
                    67:b5:0c:dd:b6:46:cc:8d:a3:f6:2f:d4:61:89:7f:
                    7a:3a:b5:fe:68:3c:fe:00:eb:66:c0:86:7b:f2:67:
                    b0:0d:34:6e:96:87:2d:c2:e6:df:52:48:47:1f:b2:
                    09:0c:a2:a6:b9:61:17:ab:5b:78:fb:27:6b:07:9c:
                    53:d3:67:d7:bb:ac:21:a0:d1:ac:71:3b:bc:28:71:
                    36:65
                Exponent: 65537 (0x10001)
        X509v3 extensions:
            X509v3 Basic Constraints: 
                CA:FALSE
            X509v3 Subject Key Identifier: 
                ED:9D:6F:59:92:7F:14:34:B1:44:D5:7B:01:56:7F:DD:7E:08:72:41
            X509v3 Authority Key Identifier: 
                keyid:8B:20:EF:1E:79:AA:08:54:83:89:B6:B6:38:B0:FB:3E:78:16:A1:62
                DirName:/CN=Easy-RSA CA
                serial:79:7C:76:2B:CB:8E:27:F0:E7:73:9C:57:63:8C:36:CF:E6:78:3E:BD

            X509v3 Extended Key Usage: 
                TLS Web Client Authentication
            X509v3 Key Usage: 
                Digital Signature
    Signature Algorithm: sha256WithRSAEncryption
         4d:88:43:26:6a:e1:3c:8d:93:a4:6b:57:1a:bb:55:81:48:31:
         5d:a1:28:d8:a2:3a:20:0e:0b:97:17:7f:e7:9c:2c:6c:d2:7f:
         ec:e3:56:6b:ce:46:76:8e:bd:b8:17:f4:24:fd:b2:97:94:65:
         8b:79:b8:19:f2:be:ca:e3:34:d9:fa:14:f5:e1:ff:3d:48:a0:
         68:98:0b:0a:e0:b6:28:51:ef:bf:cd:6a:b7:e3:d4:e5:e7:9d:
         8c:e0:d7:a9:26:7e:db:0d:14:67:ac:a0:5e:1b:e8:91:ba:ae:
         dd:25:5a:42:4c:bc:ea:6b:94:2b:1d:87:e4:b4:d7:97:7a:76:
         65:89:8b:c9:83:ed:dd:55:80:f9:5c:12:d4:9b:16:16:4c:ac:
         cb:35:19:b2:bf:95:b9:0c:7b:68:37:ac:7a:8e:e9:f9:a3:ab:
         ef:aa:39:56:bc:c6:a3:d2:98:b6:5d:ed:0a:7c:69:00:7e:26:
         9a:cb:12:49:79:41:e4:91:b2:a4:50:42:6a:64:70:2a:08:a5:
         6c:c6:0d:38:2e:d1:93:06:c3:e5:6d:0a:68:61:28:32:10:2c:
         88:2a:52:05:6f:3e:bd:f6:6c:7c:3c:09:5f:3d:f7:d8:fb:a2:
         33:5f:c9:44:65:58:4e:af:cc:fc:3d:6c:c8:f8:86:03:b3:89:
         b1:31:dd:94
-----BEGIN CERTIFICATE-----
MIIDVjCCAj6gAwIBAgIQfs7iaj+BsdYVHBOnIh9VMDANBgkqhkiG9w0BAQsFADAW
MRQwEgYDVQQDDAtFYXN5LVJTQSBDQTAeFw0yMTA4MTUwNTA2MDhaFw0yMzExMTgw
NTA2MDhaMBMxETAPBgNVBAMMCGFuZHJvaWQxMIIBIjANBgkqhkiG9w0BAQEFAAOC
AQ8AMIIBCgKCAQEA3ZeDNCmYPY+h/mAzX5LrqJICt/Ye9IkiI01DY5Y6VXtFJfRO
S8/F7Mjc76yv8dz27nqE9Ae8e+Ttjy8EBH4XJWOikL1cIZvp5gW+43Ht1nyveU/i
4HViHh2LtRso3rfpXAVJS3hidjWyHf7G6KxM58gSn7+sp/ZsktjhxzMeyijXFdCQ
hYBG6+8jWWD1iwYpy1Drfbq+GWJcaA8W9qH7pet61XrldxE8ZGzvxRFzAUpeGX5n
tQzdtkbMjaP2L9RhiX96OrX+aDz+AOtmwIZ78mewDTRuloctwubfUkhHH7IJDKKm
uWEXq1t4+ydrB5xT02fXu6whoNGscTu8KHE2ZQIDAQABo4GiMIGfMAkGA1UdEwQC
MAAwHQYDVR0OBBYEFO2db1mSfxQ0sUTVewFWf91+CHJBMFEGA1UdIwRKMEiAFIsg
7x55qghUg4m2tjiw+z54FqFioRqkGDAWMRQwEgYDVQQDDAtFYXN5LVJTQSBDQYIU
eXx2K8uOJ/Dnc5xXY4w2z+Z4Pr0wEwYDVR0lBAwwCgYIKwYBBQUHAwIwCwYDVR0P
BAQDAgeAMA0GCSqGSIb3DQEBCwUAA4IBAQBNiEMmauE8jZOka1cau1WBSDFdoSjY
ojogDguXF3/nnCxs0n/s41ZrzkZ2jr24F/Qk/bKXlGWLebgZ8r7K4zTZ+hT14f89
SKBomAsK4LYoUe+/zWq349Tl552M4NepJn7bDRRnrKBeG+iRuq7dJVpCTLzqa5Qr
HYfktNeXenZliYvJg+3dVYD5XBLUmxYWTKzLNRmyv5W5DHtoN6x6jun5o6vvqjlW
vMaj0pi2Xe0KfGkAfiaayxJJeUHkkbKkUEJqZHAqCKVsxg04LtGTBsPlbQpoYSgy
ECyIKlIFbz699mx8PAlfPffY+6IzX8lEZVhOr8z8PWzI+IYDs4mxMd2U
-----END CERTIFICATE-----
