Certificate:
    Data:
        Version: 3 (0x2)
        Serial Number:
            76:6e:15:07:54:93:66:8c:23:b5:52:94:18:d2:2a:30
        Signature Algorithm: sha256WithRSAEncryption
        Issuer: CN=Easy-RSA CA
        Validity
            Not Before: Jun 11 12:37:09 2021 GMT
            Not After : Sep 14 12:37:09 2023 GMT
        Subject: CN=client1
        Subject Public Key Info:
            Public Key Algorithm: rsaEncryption
                RSA Public-Key: (2048 bit)
                Modulus:
                    00:ac:eb:4e:ca:f2:0f:b4:3f:39:8f:b4:57:27:77:
                    42:32:4a:40:98:d5:a1:ba:58:00:4c:dc:2b:f4:f0:
                    2f:30:a8:34:2c:49:87:75:bc:f9:f9:43:23:a8:62:
                    ce:d7:a9:de:d7:b0:88:d9:cf:3d:15:53:e3:62:4a:
                    57:c5:ae:34:71:f1:d4:ce:a8:bf:70:ff:ff:0c:fc:
                    d9:45:9c:49:01:96:03:5d:45:54:8b:9f:97:df:ad:
                    b1:ff:d4:cb:dd:5b:37:c7:38:95:18:d2:5a:3e:f5:
                    08:a2:c4:99:33:44:48:7c:b7:e0:37:5c:12:2b:e2:
                    4a:34:84:82:09:2a:4e:31:83:b1:e4:32:20:5f:fd:
                    29:74:00:ce:0f:46:a9:c9:9f:fa:8a:ec:6c:fc:1d:
                    06:da:d9:78:54:ef:6d:8e:80:92:54:d4:a1:db:13:
                    26:9b:ee:8e:bd:b3:e2:45:9a:3a:61:e5:d0:f7:c3:
                    3f:33:ee:ba:7a:fe:48:20:ce:7a:73:62:28:4e:8a:
                    c9:22:7b:bf:21:3d:3e:f1:2b:92:80:f5:e6:51:da:
                    6f:c0:04:19:bf:d5:75:2e:28:50:6b:85:21:46:f5:
                    28:33:6a:30:74:14:cc:cb:06:89:b9:a4:25:a2:57:
                    3f:96:57:40:2c:37:9f:b1:7d:de:d9:80:ac:5e:91:
                    6b:9f
                Exponent: 65537 (0x10001)
        X509v3 extensions:
            X509v3 Basic Constraints: 
                CA:FALSE
            X509v3 Subject Key Identifier: 
                14:AE:84:54:6A:2C:F3:4A:30:7B:E7:CA:B6:FA:E8:28:76:40:A0:B3
            X509v3 Authority Key Identifier: 
                keyid:4C:78:56:52:AD:F6:38:7D:B3:B6:E1:3B:6A:E7:92:2F:98:B6:7A:BF
                DirName:/CN=Easy-RSA CA
                serial:3C:AB:47:AE:F7:FA:E8:57:3F:94:6A:62:EC:1E:CC:8E:64:06:6E:92

            X509v3 Extended Key Usage: 
                TLS Web Client Authentication
            X509v3 Key Usage: 
                Digital Signature
    Signature Algorithm: sha256WithRSAEncryption
         9c:63:bc:d2:1a:85:4f:d9:74:04:e5:a5:0d:99:b0:10:96:eb:
         3c:b4:cd:6c:0c:ed:18:b2:5d:ba:c4:60:43:6c:81:e2:df:85:
         0e:ce:5d:c4:31:b5:e6:74:8b:12:96:04:cf:f5:11:dc:93:fe:
         e6:a2:aa:4f:83:1a:95:ac:bb:90:4a:82:55:62:a8:63:81:90:
         7e:d3:9c:28:e4:0b:b1:f1:42:cc:5e:12:b5:4d:a9:29:38:0b:
         58:0f:89:fc:7b:90:fe:3d:4d:4f:d3:3c:1f:c7:9b:3b:ca:53:
         8d:f0:10:a9:4a:98:4f:6d:38:25:6b:65:c7:9f:2f:dd:bd:5f:
         6a:28:a3:51:06:c5:d5:15:11:f3:6d:b2:5f:9e:68:6b:81:09:
         ae:61:a3:5a:e3:1e:3e:58:ac:2a:a6:5f:4f:55:f9:e7:c9:eb:
         00:3d:d5:55:e4:94:45:38:f4:06:9a:bb:e8:d0:43:1b:d3:81:
         0f:06:d7:52:09:4d:8e:5e:52:a9:e9:ea:f1:b0:fb:34:96:61:
         70:ea:99:d0:43:37:f6:f1:8b:f2:d3:c1:38:29:21:c8:3a:16:
         f1:04:dd:88:f4:1b:74:f8:01:1d:e8:72:a1:65:96:4a:ef:fa:
         a1:25:ae:7d:c2:73:72:12:a8:f0:17:fe:52:eb:c8:14:cf:5e:
         f7:99:c2:1e
-----BEGIN CERTIFICATE-----
MIIDVTCCAj2gAwIBAgIQdm4VB1STZowjtVKUGNIqMDANBgkqhkiG9w0BAQsFADAW
MRQwEgYDVQQDDAtFYXN5LVJTQSBDQTAeFw0yMTA2MTExMjM3MDlaFw0yMzA5MTQx
MjM3MDlaMBIxEDAOBgNVBAMMB2NsaWVudDEwggEiMA0GCSqGSIb3DQEBAQUAA4IB
DwAwggEKAoIBAQCs607K8g+0PzmPtFcnd0IySkCY1aG6WABM3Cv08C8wqDQsSYd1
vPn5QyOoYs7Xqd7XsIjZzz0VU+NiSlfFrjRx8dTOqL9w//8M/NlFnEkBlgNdRVSL
n5ffrbH/1MvdWzfHOJUY0lo+9QiixJkzREh8t+A3XBIr4ko0hIIJKk4xg7HkMiBf
/Sl0AM4PRqnJn/qK7Gz8HQba2XhU722OgJJU1KHbEyab7o69s+JFmjph5dD3wz8z
7rp6/kggznpzYihOiskie78hPT7xK5KA9eZR2m/ABBm/1XUuKFBrhSFG9SgzajB0
FMzLBom5pCWiVz+WV0AsN5+xfd7ZgKxekWufAgMBAAGjgaIwgZ8wCQYDVR0TBAIw
ADAdBgNVHQ4EFgQUFK6EVGos80owe+fKtvroKHZAoLMwUQYDVR0jBEowSIAUTHhW
Uq32OH2ztuE7aueSL5i2er+hGqQYMBYxFDASBgNVBAMMC0Vhc3ktUlNBIENBghQ8
q0eu9/roVz+UamLsHsyOZAZukjATBgNVHSUEDDAKBggrBgEFBQcDAjALBgNVHQ8E
BAMCB4AwDQYJKoZIhvcNAQELBQADggEBAJxjvNIahU/ZdATlpQ2ZsBCW6zy0zWwM
7RiyXbrEYENsgeLfhQ7OXcQxteZ0ixKWBM/1EdyT/uaiqk+DGpWsu5BKglViqGOB
kH7TnCjkC7HxQsxeErVNqSk4C1gPifx7kP49TU/TPB/HmzvKU43wEKlKmE9tOCVr
ZcefL929X2ooo1EGxdUVEfNtsl+eaGuBCa5ho1rjHj5YrCqmX09V+efJ6wA91VXk
lEU49Aaau+jQQxvTgQ8G11IJTY5eUqnp6vGw+zSWYXDqmdBDN/bxi/LTwTgpIcg6
FvEE3Yj0G3T4AR3ocqFllkrv+qElrn3Cc3ISqPAX/lLryBTPXveZwh4=
-----END CERTIFICATE-----
