Certificate:
    Data:
        Version: 3 (0x2)
        Serial Number:
            34:de:e8:6b:16:53:73:60:19:97:71:e3:45:e3:23:fc
        Signature Algorithm: sha256WithRSAEncryption
        Issuer: CN=Easy-RSA CA
        Validity
            Not Before: Aug 15 05:42:10 2021 GMT
            Not After : Nov 18 05:42:10 2023 GMT
        Subject: CN=tormidbox
        Subject Public Key Info:
            Public Key Algorithm: rsaEncryption
                RSA Public-Key: (2048 bit)
                Modulus:
                    00:e1:c1:0f:f5:d5:ff:6b:2d:95:f6:ac:6b:64:37:
                    5b:40:9c:b3:d1:f6:65:39:14:0e:db:06:b9:db:f3:
                    aa:33:cf:1c:d0:ea:91:e2:56:c1:e6:af:53:4b:b3:
                    1c:44:f5:78:35:0f:de:da:9f:fd:91:ce:dc:fc:8a:
                    7e:95:29:90:cd:f4:36:76:01:3c:6d:1d:4f:c5:6c:
                    c7:93:4c:e3:46:a9:0d:83:1b:00:06:5c:bc:e2:67:
                    8c:ca:34:01:40:20:9e:4c:30:f0:5b:ad:e4:a2:ef:
                    77:db:8f:17:94:d0:60:86:f7:66:87:a2:a8:50:e7:
                    e6:cd:a7:8b:57:b7:46:3c:42:27:c2:23:88:57:66:
                    b2:00:bf:0a:23:0d:9c:bb:10:f8:75:54:08:13:63:
                    8f:13:9c:53:4b:f3:cc:ec:b0:6c:33:2b:1e:27:e2:
                    b4:23:a3:3e:ba:de:15:8a:b4:6a:ef:3b:4c:23:62:
                    f1:78:0c:b5:a6:99:af:97:12:85:8b:16:6b:e7:0e:
                    e7:8b:a8:5e:e7:35:10:4e:35:f6:ea:6e:5f:34:81:
                    74:f8:53:7c:5e:a2:09:93:d2:79:ea:d6:23:ac:5d:
                    30:a8:f3:94:7c:76:a1:02:db:21:0d:39:74:6d:56:
                    b8:1d:97:25:fe:a5:64:ae:e2:83:3c:32:07:62:cc:
                    7d:25
                Exponent: 65537 (0x10001)
        X509v3 extensions:
            X509v3 Basic Constraints: 
                CA:FALSE
            X509v3 Subject Key Identifier: 
                23:3D:AE:59:D5:F7:8C:7E:E1:EE:86:27:23:38:C8:81:9D:47:D3:71
            X509v3 Authority Key Identifier: 
                keyid:8B:20:EF:1E:79:AA:08:54:83:89:B6:B6:38:B0:FB:3E:78:16:A1:62
                DirName:/CN=Easy-RSA CA
                serial:79:7C:76:2B:CB:8E:27:F0:E7:73:9C:57:63:8C:36:CF:E6:78:3E:BD

            X509v3 Extended Key Usage: 
                TLS Web Client Authentication
            X509v3 Key Usage: 
                Digital Signature
    Signature Algorithm: sha256WithRSAEncryption
         13:4f:3d:eb:d0:91:ab:92:88:64:1b:01:92:b8:f8:40:97:82:
         8f:e4:35:6c:88:fb:43:a7:0b:24:c0:6e:c8:bd:a6:3c:97:20:
         a0:c3:32:a1:39:c4:15:4f:26:ad:64:99:7f:47:01:3a:e3:fe:
         33:59:4d:58:f7:15:b4:39:dd:70:bc:d1:08:91:8e:69:00:53:
         1e:74:e2:cf:28:c4:5f:64:06:43:33:44:53:32:46:48:90:e7:
         7a:2a:02:53:6a:31:ce:4f:5e:fa:96:4d:52:ee:f7:f4:b9:d8:
         9a:8d:93:54:ee:da:31:a5:74:70:60:0a:c1:f5:02:0b:94:bb:
         9e:53:c9:18:c1:98:8c:4e:da:a1:a7:c0:c3:fe:9f:b1:dc:ee:
         5b:20:1a:b1:da:5f:1b:54:ab:c7:62:df:d9:fd:87:0c:f3:74:
         25:06:1f:cd:26:e0:83:7f:c7:9a:55:c9:68:f1:aa:d4:15:8e:
         94:b1:9f:75:de:d9:c5:f9:22:69:3b:64:51:1f:98:b6:9e:d0:
         53:4c:10:58:f8:68:3a:d4:e1:07:7a:d3:41:f0:93:3f:53:04:
         a1:62:90:44:e8:e4:07:df:61:3e:e5:29:e3:32:df:9f:8d:7b:
         11:58:f1:ef:ea:6d:a1:51:97:10:e5:44:24:26:38:eb:6b:60:
         b8:a7:c2:8e
-----BEGIN CERTIFICATE-----
MIIDVzCCAj+gAwIBAgIQNN7oaxZTc2AZl3HjReMj/DANBgkqhkiG9w0BAQsFADAW
MRQwEgYDVQQDDAtFYXN5LVJTQSBDQTAeFw0yMTA4MTUwNTQyMTBaFw0yMzExMTgw
NTQyMTBaMBQxEjAQBgNVBAMMCXRvcm1pZGJveDCCASIwDQYJKoZIhvcNAQEBBQAD
ggEPADCCAQoCggEBAOHBD/XV/2stlfasa2Q3W0Ccs9H2ZTkUDtsGudvzqjPPHNDq
keJWweavU0uzHET1eDUP3tqf/ZHO3PyKfpUpkM30NnYBPG0dT8Vsx5NM40apDYMb
AAZcvOJnjMo0AUAgnkww8Fut5KLvd9uPF5TQYIb3ZoeiqFDn5s2ni1e3RjxCJ8Ij
iFdmsgC/CiMNnLsQ+HVUCBNjjxOcU0vzzOywbDMrHifitCOjPrreFYq0au87TCNi
8XgMtaaZr5cShYsWa+cO54uoXuc1EE419upuXzSBdPhTfF6iCZPSeerWI6xdMKjz
lHx2oQLbIQ05dG1WuB2XJf6lZK7igzwyB2LMfSUCAwEAAaOBojCBnzAJBgNVHRME
AjAAMB0GA1UdDgQWBBQjPa5Z1feMfuHuhicjOMiBnUfTcTBRBgNVHSMESjBIgBSL
IO8eeaoIVIOJtrY4sPs+eBahYqEapBgwFjEUMBIGA1UEAwwLRWFzeS1SU0EgQ0GC
FHl8divLjifw53OcV2OMNs/meD69MBMGA1UdJQQMMAoGCCsGAQUFBwMCMAsGA1Ud
DwQEAwIHgDANBgkqhkiG9w0BAQsFAAOCAQEAE08969CRq5KIZBsBkrj4QJeCj+Q1
bIj7Q6cLJMBuyL2mPJcgoMMyoTnEFU8mrWSZf0cBOuP+M1lNWPcVtDndcLzRCJGO
aQBTHnTizyjEX2QGQzNEUzJGSJDneioCU2oxzk9e+pZNUu739LnYmo2TVO7aMaV0
cGAKwfUCC5S7nlPJGMGYjE7aoafAw/6fsdzuWyAasdpfG1Srx2Lf2f2HDPN0JQYf
zSbgg3/HmlXJaPGq1BWOlLGfdd7ZxfkiaTtkUR+Ytp7QU0wQWPhoOtThB3rTQfCT
P1MEoWKQROjkB99hPuUp4zLfn417EVjx7+ptoVGXEOVEJCY462tguKfCjg==
-----END CERTIFICATE-----
