Certificate:
    Data:
        Version: 3 (0x2)
        Serial Number:
            34:9e:09:1e:07:4e:be:16:9d:23:73:b8:4b:4a:23:39
        Signature Algorithm: sha256WithRSAEncryption
        Issuer: CN=Easy-RSA CA
        Validity
            Not Before: May 27 09:51:34 2021 GMT
            Not After : Aug 30 09:51:34 2023 GMT
        Subject: CN=VPN.SERVERNAME.COM
        Subject Public Key Info:
            Public Key Algorithm: rsaEncryption
                RSA Public-Key: (2048 bit)
                Modulus:
                    00:ad:30:ec:f4:f3:d8:62:7c:33:f8:02:9f:d8:8f:
                    c1:24:4a:ef:10:12:9d:41:54:c1:b6:47:cb:db:f2:
                    c3:63:c7:a6:be:9d:f8:89:60:b8:53:2a:1a:47:31:
                    27:bf:51:23:ec:6f:13:28:c7:3b:dd:63:49:1e:2c:
                    bd:b8:d7:88:2d:ad:a6:b7:43:17:36:42:00:2b:aa:
                    c5:6b:06:bc:c5:5b:fc:62:ec:19:ba:bb:c4:7d:ce:
                    4b:95:dd:eb:8c:3a:0a:d0:04:ec:3e:59:b9:b9:79:
                    c7:0f:ac:4c:75:76:9d:0e:91:cc:f3:0d:ec:a5:5e:
                    4a:a3:04:f1:f9:41:af:1e:0b:05:d4:d4:28:1c:77:
                    0e:ec:ea:c5:0f:99:17:d0:5b:1a:c6:8a:90:36:b6:
                    a6:01:d1:27:43:70:60:fc:21:ae:57:3f:35:bc:b6:
                    d3:32:85:19:57:2e:c1:b6:fb:8d:21:94:3c:a7:b7:
                    ea:fb:79:8a:44:4d:bb:f2:34:87:66:6e:62:6a:fb:
                    b6:4b:a5:c7:ae:56:7c:4f:4e:7d:4f:ec:8a:d9:00:
                    6e:1c:87:46:c4:a5:1a:f2:9e:ca:bc:a8:6e:f8:0c:
                    2c:63:98:14:61:73:a8:d4:b9:60:71:3c:7d:48:6e:
                    82:c1:6a:e1:ba:25:49:9d:e9:b9:70:90:56:d6:b6:
                    e1:f1
                Exponent: 65537 (0x10001)
        X509v3 extensions:
            X509v3 Basic Constraints: 
                CA:FALSE
            X509v3 Subject Key Identifier: 
                7E:47:9C:D9:01:51:72:B1:F6:B1:6E:98:6D:BD:35:FE:B5:9D:23:7C
            X509v3 Authority Key Identifier: 
                keyid:8B:20:EF:1E:79:AA:08:54:83:89:B6:B6:38:B0:FB:3E:78:16:A1:62
                DirName:/CN=Easy-RSA CA
                serial:79:7C:76:2B:CB:8E:27:F0:E7:73:9C:57:63:8C:36:CF:E6:78:3E:BD

            X509v3 Extended Key Usage: 
                TLS Web Server Authentication
            X509v3 Key Usage: 
                Digital Signature, Key Encipherment
            X509v3 Subject Alternative Name: 
                DNS:VPN.SERVERNAME.COM
    Signature Algorithm: sha256WithRSAEncryption
         10:84:b3:44:62:f2:c5:8f:5e:eb:64:41:a3:16:b3:22:5a:1e:
         f6:db:34:a3:ad:b2:53:b7:05:c7:1a:4f:4a:44:12:3b:b8:3a:
         44:79:42:8d:e8:e3:6a:77:49:86:9b:c8:b6:10:31:1b:7f:3c:
         78:09:9c:2a:f5:3a:9b:93:55:50:2a:79:62:ee:28:25:0f:f7:
         26:c8:0c:72:52:5a:25:42:22:00:e0:1b:c8:11:e5:47:68:aa:
         74:cf:c7:c5:8c:cb:7a:64:ab:bb:9f:c7:01:d7:73:28:08:c4:
         83:17:7b:5b:fd:3a:cc:ed:f5:44:42:7d:11:9b:81:c4:04:c4:
         40:15:4c:18:7a:ab:cd:61:9b:02:70:fe:8d:6c:3c:58:10:8a:
         74:9d:85:90:ab:0e:c2:82:82:49:6c:c3:99:aa:a1:f2:d9:7e:
         75:8e:43:9e:84:2f:80:ea:1d:2d:71:af:71:e7:9d:41:df:ff:
         f7:43:82:f3:fc:b4:e9:0a:c0:5b:8a:88:16:b0:57:dd:62:80:
         fe:a9:8c:9f:98:fb:21:21:e3:f1:ca:8f:72:b0:52:84:7b:8a:
         d7:45:84:0e:86:03:95:d6:2b:83:46:57:a9:8f:2a:fd:cf:e5:
         99:dd:8b:25:9d:a8:c4:e4:d5:80:e5:97:df:22:d8:f8:32:c9:
         a1:1a:ea:59
-----BEGIN CERTIFICATE-----
MIIDfzCCAmegAwIBAgIQNJ4JHgdOvhadI3O4S0ojOTANBgkqhkiG9w0BAQsFADAW
MRQwEgYDVQQDDAtFYXN5LVJTQSBDQTAeFw0yMTA1MjcwOTUxMzRaFw0yMzA4MzAw
OTUxMzRaMB0xGzAZBgNVBAMMElZQTi5TRVJWRVJOQU1FLkNPTTCCASIwDQYJKoZI
hvcNAQEBBQADggEPADCCAQoCggEBAK0w7PTz2GJ8M/gCn9iPwSRK7xASnUFUwbZH
y9vyw2PHpr6d+IlguFMqGkcxJ79RI+xvEyjHO91jSR4svbjXiC2tprdDFzZCACuq
xWsGvMVb/GLsGbq7xH3OS5Xd64w6CtAE7D5Zubl5xw+sTHV2nQ6RzPMN7KVeSqME
8flBrx4LBdTUKBx3DuzqxQ+ZF9BbGsaKkDa2pgHRJ0NwYPwhrlc/Nby20zKFGVcu
wbb7jSGUPKe36vt5ikRNu/I0h2ZuYmr7tkulx65WfE9OfU/sitkAbhyHRsSlGvKe
yryobvgMLGOYFGFzqNS5YHE8fUhugsFq4bolSZ3puXCQVta24fECAwEAAaOBwTCB
vjAJBgNVHRMEAjAAMB0GA1UdDgQWBBR+R5zZAVFysfaxbphtvTX+tZ0jfDBRBgNV
HSMESjBIgBSLIO8eeaoIVIOJtrY4sPs+eBahYqEapBgwFjEUMBIGA1UEAwwLRWFz
eS1SU0EgQ0GCFHl8divLjifw53OcV2OMNs/meD69MBMGA1UdJQQMMAoGCCsGAQUF
BwMBMAsGA1UdDwQEAwIFoDAdBgNVHREEFjAUghJWUE4uU0VSVkVSTkFNRS5DT00w
DQYJKoZIhvcNAQELBQADggEBABCEs0Ri8sWPXutkQaMWsyJaHvbbNKOtslO3Bcca
T0pEEju4OkR5Qo3o42p3SYabyLYQMRt/PHgJnCr1OpuTVVAqeWLuKCUP9ybIDHJS
WiVCIgDgG8gR5UdoqnTPx8WMy3pkq7ufxwHXcygIxIMXe1v9Oszt9URCfRGbgcQE
xEAVTBh6q81hmwJw/o1sPFgQinSdhZCrDsKCgklsw5mqofLZfnWOQ56EL4DqHS1x
r3HnnUHf//dDgvP8tOkKwFuKiBawV91igP6pjJ+Y+yEh4/HKj3KwUoR7itdFhA6G
A5XWK4NGV6mPKv3P5ZndiyWdqMTk1YDll98i2PgyyaEa6lk=
-----END CERTIFICATE-----
