Certificate:
    Data:
        Version: 3 (0x2)
        Serial Number:
            7f:f5:6a:8a:1d:2c:d0:8a:0e:bb:43:6e:1e:39:e9:14
        Signature Algorithm: sha256WithRSAEncryption
        Issuer: CN=Easy-RSA CA
        Validity
            Not Before: Jun  1 16:07:01 2021 GMT
            Not After : Sep  4 16:07:01 2023 GMT
        Subject: CN=phone1
        Subject Public Key Info:
            Public Key Algorithm: rsaEncryption
                RSA Public-Key: (2048 bit)
                Modulus:
                    00:d2:79:35:e2:e4:cc:4f:21:1a:80:b2:29:b7:2f:
                    ac:db:39:9b:84:bf:6c:e3:bf:e5:0c:a3:15:dc:b0:
                    fb:bd:f4:3f:3a:82:cf:31:06:75:df:43:2d:9f:36:
                    97:6c:5d:a2:52:69:cf:48:57:1c:40:c4:08:44:60:
                    48:e0:c9:e3:5e:2e:12:56:ed:dd:d6:f8:e9:62:33:
                    81:df:aa:50:86:27:6a:ee:19:1c:3b:08:1b:5c:03:
                    2a:5e:2a:27:9a:83:44:8a:6a:98:72:7f:a0:b3:42:
                    f3:44:59:49:d7:1b:bc:68:6b:04:fe:38:93:f3:5e:
                    b5:93:e6:de:ab:d6:6d:76:3c:eb:5a:2b:13:54:56:
                    ea:62:01:cf:17:85:b1:8f:ff:4e:6c:89:19:94:b8:
                    2b:cc:5b:c4:ed:3c:c8:67:27:a0:75:e2:13:dc:4e:
                    ac:b2:28:e3:06:e4:53:0d:40:00:d3:c0:f3:f0:c7:
                    e4:17:04:fe:2f:9f:05:f8:04:50:5f:57:c2:79:d5:
                    9c:72:48:87:bf:b3:7b:53:67:e9:ac:7b:d5:1c:7c:
                    b4:7a:cd:d7:b9:81:4d:4d:d3:50:72:5a:34:18:8f:
                    1d:6c:77:7e:0f:fe:36:3b:0a:6d:11:53:11:bd:49:
                    7a:84:1b:27:79:2b:1b:e1:e7:ef:86:34:21:93:8b:
                    72:4f
                Exponent: 65537 (0x10001)
        X509v3 extensions:
            X509v3 Basic Constraints: 
                CA:FALSE
            X509v3 Subject Key Identifier: 
                3B:4E:C2:00:B2:CA:AF:E1:E7:4E:0D:C9:CA:80:4B:99:A3:7A:EC:FB
            X509v3 Authority Key Identifier: 
                keyid:8B:20:EF:1E:79:AA:08:54:83:89:B6:B6:38:B0:FB:3E:78:16:A1:62
                DirName:/CN=Easy-RSA CA
                serial:79:7C:76:2B:CB:8E:27:F0:E7:73:9C:57:63:8C:36:CF:E6:78:3E:BD

            X509v3 Extended Key Usage: 
                TLS Web Client Authentication
            X509v3 Key Usage: 
                Digital Signature
    Signature Algorithm: sha256WithRSAEncryption
         09:31:8b:5f:6e:38:d5:f0:e4:c8:77:be:36:17:11:1e:f9:4b:
         9f:34:c1:df:2a:78:d8:d8:dc:20:31:67:28:61:00:25:5b:46:
         cd:ee:a7:25:f9:28:e4:f1:bb:56:5e:85:a3:f3:d9:82:c3:ad:
         6c:82:f9:46:06:5a:fb:de:01:57:b0:d9:1d:76:62:4c:a4:21:
         cb:d8:cc:df:a7:08:f0:bc:60:da:6d:a6:74:91:f4:73:21:1d:
         be:65:7d:70:c6:dd:58:39:45:f2:a0:b2:70:19:61:45:18:30:
         4c:3f:01:64:ac:39:7a:30:de:7a:4f:bb:b3:e6:63:f5:7b:ea:
         42:48:54:ce:45:7d:11:ec:2c:9f:a8:ae:04:1d:96:0e:f1:c1:
         c0:89:5a:3e:90:74:6d:a4:80:8c:c4:59:fa:cf:c2:11:70:93:
         b5:a9:20:24:d4:69:c2:da:50:4c:ad:28:6d:eb:8d:c8:02:06:
         ea:f5:0d:58:dd:9d:6a:45:a9:80:c9:30:c8:8d:4c:20:00:96:
         40:7c:fd:57:91:ca:3f:f6:67:4a:7e:7b:c9:4b:7c:30:57:0e:
         77:2b:4d:3d:94:ad:4f:ee:6b:ef:f5:a5:a5:38:07:7c:d9:a2:
         9d:78:0f:96:82:4e:13:50:47:ce:c3:61:3c:ee:6f:c0:82:26:
         a4:ba:83:1e
-----BEGIN CERTIFICATE-----
MIIDVDCCAjygAwIBAgIQf/Vqih0s0IoOu0NuHjnpFDANBgkqhkiG9w0BAQsFADAW
MRQwEgYDVQQDDAtFYXN5LVJTQSBDQTAeFw0yMTA2MDExNjA3MDFaFw0yMzA5MDQx
NjA3MDFaMBExDzANBgNVBAMMBnBob25lMTCCASIwDQYJKoZIhvcNAQEBBQADggEP
ADCCAQoCggEBANJ5NeLkzE8hGoCyKbcvrNs5m4S/bOO/5QyjFdyw+730PzqCzzEG
dd9DLZ82l2xdolJpz0hXHEDECERgSODJ414uElbt3db46WIzgd+qUIYnau4ZHDsI
G1wDKl4qJ5qDRIpqmHJ/oLNC80RZSdcbvGhrBP44k/NetZPm3qvWbXY861orE1RW
6mIBzxeFsY//TmyJGZS4K8xbxO08yGcnoHXiE9xOrLIo4wbkUw1AANPA8/DH5BcE
/i+fBfgEUF9XwnnVnHJIh7+ze1Nn6ax71Rx8tHrN17mBTU3TUHJaNBiPHWx3fg/+
NjsKbRFTEb1JeoQbJ3krG+Hn74Y0IZOLck8CAwEAAaOBojCBnzAJBgNVHRMEAjAA
MB0GA1UdDgQWBBQ7TsIAssqv4edODcnKgEuZo3rs+zBRBgNVHSMESjBIgBSLIO8e
eaoIVIOJtrY4sPs+eBahYqEapBgwFjEUMBIGA1UEAwwLRWFzeS1SU0EgQ0GCFHl8
divLjifw53OcV2OMNs/meD69MBMGA1UdJQQMMAoGCCsGAQUFBwMCMAsGA1UdDwQE
AwIHgDANBgkqhkiG9w0BAQsFAAOCAQEACTGLX2441fDkyHe+NhcRHvlLnzTB3yp4
2NjcIDFnKGEAJVtGze6nJfko5PG7Vl6Fo/PZgsOtbIL5RgZa+94BV7DZHXZiTKQh
y9jM36cI8Lxg2m2mdJH0cyEdvmV9cMbdWDlF8qCycBlhRRgwTD8BZKw5ejDeek+7
s+Zj9XvqQkhUzkV9Eewsn6iuBB2WDvHBwIlaPpB0baSAjMRZ+s/CEXCTtakgJNRp
wtpQTK0obeuNyAIG6vUNWN2dakWpgMkwyI1MIACWQHz9V5HKP/ZnSn57yUt8MFcO
dytNPZStT+5r7/WlpTgHfNminXgPloJOE1BHzsNhPO5vwIImpLqDHg==
-----END CERTIFICATE-----
