Certificate:
    Data:
        Version: 3 (0x2)
        Serial Number:
            c4:28:7f:9d:9a:3a:fb:c8:61:a0:94:82:0c:16:48:c9
        Signature Algorithm: sha256WithRSAEncryption
        Issuer: CN=Easy-RSA CA
        Validity
            Not Before: Jul 25 17:35:29 2021 GMT
            Not After : Oct 28 17:35:29 2023 GMT
        Subject: CN=torrouter
        Subject Public Key Info:
            Public Key Algorithm: rsaEncryption
                RSA Public-Key: (2048 bit)
                Modulus:
                    00:a0:da:0b:7a:42:bd:e0:2f:0b:94:e3:9d:4c:13:
                    f6:ec:60:75:a6:c5:96:eb:97:07:e3:cb:d0:84:fb:
                    1e:19:b6:11:8e:34:05:1d:ca:10:9a:d4:6b:1e:a2:
                    3d:3b:0f:de:52:cd:67:58:bd:de:fe:8f:b4:bf:24:
                    8a:23:58:e9:85:28:4e:30:82:1a:67:d5:88:fb:be:
                    c5:5c:84:48:f6:b6:41:e4:c8:c8:c2:d0:09:19:dc:
                    ce:9f:6a:b2:f4:d7:01:06:4a:83:15:3e:d5:8d:cd:
                    cc:b9:a5:57:e7:24:e8:9e:10:a4:25:14:18:6e:5f:
                    37:83:a2:65:33:9e:82:ce:8c:7c:54:e0:a1:f5:b0:
                    64:3c:e1:98:c0:1e:d8:7c:1b:6a:00:12:6a:3f:41:
                    ac:b7:de:3d:92:d5:56:7e:95:56:cf:65:47:fa:b0:
                    3d:26:4c:86:b8:74:ba:48:bc:51:2b:0c:01:ee:d6:
                    cd:bc:dd:0d:7d:64:6a:be:78:0e:79:cc:1a:3c:34:
                    35:6d:3c:90:3e:02:42:21:fc:83:43:ef:9e:2c:5c:
                    6d:b7:69:37:47:7c:81:da:49:bf:db:55:34:31:48:
                    af:f8:af:8d:8c:d6:d5:dc:1e:91:f9:28:95:13:2b:
                    36:be:ed:1d:2e:d2:3f:a2:1f:a0:90:f5:47:89:19:
                    4e:15
                Exponent: 65537 (0x10001)
        X509v3 extensions:
            X509v3 Basic Constraints: 
                CA:FALSE
            X509v3 Subject Key Identifier: 
                02:D2:DD:0E:82:28:84:77:CE:D2:31:A5:2D:80:0A:EB:92:70:C4:01
            X509v3 Authority Key Identifier: 
                keyid:8B:20:EF:1E:79:AA:08:54:83:89:B6:B6:38:B0:FB:3E:78:16:A1:62
                DirName:/CN=Easy-RSA CA
                serial:79:7C:76:2B:CB:8E:27:F0:E7:73:9C:57:63:8C:36:CF:E6:78:3E:BD

            X509v3 Extended Key Usage: 
                TLS Web Client Authentication
            X509v3 Key Usage: 
                Digital Signature
    Signature Algorithm: sha256WithRSAEncryption
         3e:b4:1e:24:b7:d8:ef:8b:26:7b:73:f6:26:eb:06:1a:7b:53:
         8a:e9:7c:5f:01:4d:30:6a:e7:da:66:2e:6f:b9:76:69:7d:2f:
         43:94:78:ba:94:b0:c5:70:44:a3:0a:88:6c:9f:ee:87:53:9f:
         93:15:9c:d3:d0:75:a2:d5:99:ff:c2:08:8d:2e:ad:79:8d:f9:
         a6:5e:f2:e0:b6:9d:1e:fa:10:0b:76:55:73:6e:21:b6:b3:70:
         1f:0a:1e:97:36:7b:df:10:74:83:46:a6:55:79:04:68:68:51:
         52:eb:a2:74:50:d2:68:28:7f:78:8c:bb:4d:f0:0e:6b:8a:65:
         8d:f7:93:3c:7c:c0:fd:e0:43:4b:78:53:ab:45:a2:3e:fa:ae:
         97:bb:68:e7:42:32:48:40:69:e8:9a:02:bc:da:ca:ea:1e:94:
         ed:62:fe:1d:74:55:e3:34:5b:1c:40:8a:89:69:02:2d:24:f0:
         48:b8:8c:da:54:44:e8:74:53:ba:5a:9e:25:d5:4d:82:1b:65:
         a1:ba:bf:7c:30:f3:51:d8:5a:a9:b5:5c:59:7d:cf:c4:6e:be:
         a4:85:85:2b:19:66:5e:42:ed:a4:eb:54:0c:6d:1c:11:66:8d:
         3c:aa:4f:ad:9f:b5:9d:62:a0:ca:f9:7d:f1:d7:57:31:07:f4:
         20:49:e3:44
-----BEGIN CERTIFICATE-----
MIIDWDCCAkCgAwIBAgIRAMQof52aOvvIYaCUggwWSMkwDQYJKoZIhvcNAQELBQAw
FjEUMBIGA1UEAwwLRWFzeS1SU0EgQ0EwHhcNMjEwNzI1MTczNTI5WhcNMjMxMDI4
MTczNTI5WjAUMRIwEAYDVQQDDAl0b3Jyb3V0ZXIwggEiMA0GCSqGSIb3DQEBAQUA
A4IBDwAwggEKAoIBAQCg2gt6Qr3gLwuU451ME/bsYHWmxZbrlwfjy9CE+x4ZthGO
NAUdyhCa1Gseoj07D95SzWdYvd7+j7S/JIojWOmFKE4wghpn1Yj7vsVchEj2tkHk
yMjC0AkZ3M6farL01wEGSoMVPtWNzcy5pVfnJOieEKQlFBhuXzeDomUznoLOjHxU
4KH1sGQ84ZjAHth8G2oAEmo/Qay33j2S1VZ+lVbPZUf6sD0mTIa4dLpIvFErDAHu
1s283Q19ZGq+eA55zBo8NDVtPJA+AkIh/IND754sXG23aTdHfIHaSb/bVTQxSK/4
r42M1tXcHpH5KJUTKza+7R0u0j+iH6CQ9UeJGU4VAgMBAAGjgaIwgZ8wCQYDVR0T
BAIwADAdBgNVHQ4EFgQUAtLdDoIohHfO0jGlLYAK65JwxAEwUQYDVR0jBEowSIAU
iyDvHnmqCFSDiba2OLD7PngWoWKhGqQYMBYxFDASBgNVBAMMC0Vhc3ktUlNBIENB
ghR5fHYry44n8OdznFdjjDbP5ng+vTATBgNVHSUEDDAKBggrBgEFBQcDAjALBgNV
HQ8EBAMCB4AwDQYJKoZIhvcNAQELBQADggEBAD60HiS32O+LJntz9ibrBhp7U4rp
fF8BTTBq59pmLm+5dml9L0OUeLqUsMVwRKMKiGyf7odTn5MVnNPQdaLVmf/CCI0u
rXmN+aZe8uC2nR76EAt2VXNuIbazcB8KHpc2e98QdINGplV5BGhoUVLronRQ0mgo
f3iMu03wDmuKZY33kzx8wP3gQ0t4U6tFoj76rpe7aOdCMkhAaeiaArzayuoelO1i
/h10VeM0WxxAiolpAi0k8Ei4jNpUROh0U7paniXVTYIbZaG6v3ww81HYWqm1XFl9
z8RuvqSFhSsZZl5C7aTrVAxtHBFmjTyqT62ftZ1ioMr5ffHXVzEH9CBJ40Q=
-----END CERTIFICATE-----
