Certificate:
    Data:
        Version: 3 (0x2)
        Serial Number:
            40:38:fe:64:5c:a5:b3:da:74:72:e7:44:30:13:c8:68
        Signature Algorithm: sha256WithRSAEncryption
        Issuer: CN=Easy-RSA CA
        Validity
            Not Before: Aug 16 15:57:06 2021 GMT
            Not After : Nov 19 15:57:06 2023 GMT
        Subject: CN=server_pub_proxy
        Subject Public Key Info:
            Public Key Algorithm: rsaEncryption
                RSA Public-Key: (2048 bit)
                Modulus:
                    00:ca:20:e5:a4:41:d5:53:43:00:52:c3:b8:66:c9:
                    e0:41:f1:1c:87:61:4f:ec:12:81:05:64:9b:67:48:
                    a1:6f:fa:88:fd:e6:c8:cf:d0:ae:7c:d3:2a:d2:50:
                    d6:d6:46:32:da:e8:0f:49:a0:f6:1b:ff:c9:51:64:
                    82:6a:87:e4:82:91:8f:e7:e1:97:29:81:56:d0:00:
                    42:1e:ed:20:5b:81:c3:e3:0a:f9:51:6f:d3:d6:d2:
                    33:7f:43:de:07:11:ae:e3:86:d1:4a:09:4b:58:e5:
                    58:e5:80:51:a6:c8:4b:2a:67:eb:4e:4f:94:cf:da:
                    b6:0e:49:87:47:dd:0b:3b:40:4f:24:80:d0:99:c2:
                    9b:f5:d0:02:75:aa:6a:71:b9:a7:7b:1c:de:ea:6b:
                    f7:30:0b:65:97:14:e7:8e:a5:db:f4:11:70:f6:2a:
                    ea:37:fc:9e:56:26:43:c0:ef:fb:5f:84:4d:f2:37:
                    dd:05:42:4c:27:74:e5:b0:f2:87:63:8e:f3:a5:71:
                    e1:e1:f1:5e:2d:aa:70:da:f9:0a:5e:9c:ea:9b:37:
                    70:10:03:91:7d:ad:cd:8a:64:81:e5:2f:2c:45:ab:
                    4e:77:e6:bf:c0:3a:b0:1d:28:e6:3c:c7:0b:58:dd:
                    bc:9a:1a:56:27:03:16:eb:34:1d:1b:a7:9f:42:5a:
                    ba:8f
                Exponent: 65537 (0x10001)
        X509v3 extensions:
            X509v3 Basic Constraints: 
                CA:FALSE
            X509v3 Subject Key Identifier: 
                03:04:2F:D3:BF:30:EA:DF:F8:FD:68:D0:F5:91:86:FA:3E:15:16:7D
            X509v3 Authority Key Identifier: 
                keyid:8B:20:EF:1E:79:AA:08:54:83:89:B6:B6:38:B0:FB:3E:78:16:A1:62
                DirName:/CN=Easy-RSA CA
                serial:79:7C:76:2B:CB:8E:27:F0:E7:73:9C:57:63:8C:36:CF:E6:78:3E:BD

            X509v3 Extended Key Usage: 
                TLS Web Client Authentication
            X509v3 Key Usage: 
                Digital Signature
    Signature Algorithm: sha256WithRSAEncryption
         09:de:42:d5:f4:14:42:9e:6b:12:51:64:84:13:ff:1f:aa:fe:
         c3:aa:6f:9c:85:73:64:cd:b4:2c:98:3d:c6:68:d5:05:4e:67:
         a9:03:f3:f1:7c:6f:8d:19:3b:d2:11:18:fd:ee:d2:46:b8:d8:
         07:a6:8e:50:f2:50:85:07:40:6b:a0:6d:d0:bb:ae:10:c9:ca:
         6f:0f:0a:d1:9e:95:1f:41:e5:66:7a:d9:b0:36:49:46:44:5a:
         3e:9f:e2:b3:9b:50:e0:99:67:f1:a0:30:aa:29:10:a2:c5:f3:
         14:42:7d:98:3c:68:ff:46:10:31:16:e8:2f:15:80:35:58:e3:
         01:97:48:c9:0c:f6:e1:4b:a4:cc:86:58:e8:14:ef:8c:06:11:
         c1:65:a1:76:9a:6f:0f:b7:3e:0b:12:29:66:6f:a3:38:40:7f:
         46:18:30:64:11:87:8e:81:e9:fd:af:23:38:98:b9:3c:47:33:
         cf:0c:a7:80:42:82:2c:af:5c:1f:ed:54:45:df:55:1c:01:f7:
         92:df:3b:31:f4:b0:03:04:f5:53:87:69:48:ae:8f:fc:79:7a:
         9d:8b:2e:1f:e2:90:ae:08:9d:4f:b5:8b:75:ba:5a:d6:9c:22:
         7c:23:f7:bd:32:f5:df:57:c5:dc:36:8d:4c:81:99:d6:2a:3d:
         13:ce:4e:cd
-----BEGIN CERTIFICATE-----
MIIDXjCCAkagAwIBAgIQQDj+ZFyls9p0cudEMBPIaDANBgkqhkiG9w0BAQsFADAW
MRQwEgYDVQQDDAtFYXN5LVJTQSBDQTAeFw0yMTA4MTYxNTU3MDZaFw0yMzExMTkx
NTU3MDZaMBsxGTAXBgNVBAMMEHNlcnZlcl9wdWJfcHJveHkwggEiMA0GCSqGSIb3
DQEBAQUAA4IBDwAwggEKAoIBAQDKIOWkQdVTQwBSw7hmyeBB8RyHYU/sEoEFZJtn
SKFv+oj95sjP0K580yrSUNbWRjLa6A9JoPYb/8lRZIJqh+SCkY/n4ZcpgVbQAEIe
7SBbgcPjCvlRb9PW0jN/Q94HEa7jhtFKCUtY5VjlgFGmyEsqZ+tOT5TP2rYOSYdH
3Qs7QE8kgNCZwpv10AJ1qmpxuad7HN7qa/cwC2WXFOeOpdv0EXD2Kuo3/J5WJkPA
7/tfhE3yN90FQkwndOWw8odjjvOlceHh8V4tqnDa+QpenOqbN3AQA5F9rc2KZIHl
LyxFq0535r/AOrAdKOY8xwtY3byaGlYnAxbrNB0bp59CWrqPAgMBAAGjgaIwgZ8w
CQYDVR0TBAIwADAdBgNVHQ4EFgQUAwQv078w6t/4/WjQ9ZGG+j4VFn0wUQYDVR0j
BEowSIAUiyDvHnmqCFSDiba2OLD7PngWoWKhGqQYMBYxFDASBgNVBAMMC0Vhc3kt
UlNBIENBghR5fHYry44n8OdznFdjjDbP5ng+vTATBgNVHSUEDDAKBggrBgEFBQcD
AjALBgNVHQ8EBAMCB4AwDQYJKoZIhvcNAQELBQADggEBAAneQtX0FEKeaxJRZIQT
/x+q/sOqb5yFc2TNtCyYPcZo1QVOZ6kD8/F8b40ZO9IRGP3u0ka42AemjlDyUIUH
QGugbdC7rhDJym8PCtGelR9B5WZ62bA2SUZEWj6f4rObUOCZZ/GgMKopEKLF8xRC
fZg8aP9GEDEW6C8VgDVY4wGXSMkM9uFLpMyGWOgU74wGEcFloXaabw+3PgsSKWZv
ozhAf0YYMGQRh46B6f2vIziYuTxHM88Mp4BCgiyvXB/tVEXfVRwB95LfOzH0sAME
9VOHaUiuj/x5ep2LLh/ikK4InU+1i3W6WtacInwj970y9d9Xxdw2jUyBmdYqPRPO
Ts0=
-----END CERTIFICATE-----
