Certificate:
    Data:
        Version: 3 (0x2)
        Serial Number:
            86:df:a1:09:27:e3:d4:1e:78:76:02:e4:ff:20:4c:b6
        Signature Algorithm: sha256WithRSAEncryption
        Issuer: CN=Easy-RSA CA
        Validity
            Not Before: Jun 14 11:38:55 2021 GMT
            Not After : Sep 17 11:38:55 2023 GMT
        Subject: CN=ghdevhost
        Subject Public Key Info:
            Public Key Algorithm: rsaEncryption
                RSA Public-Key: (2048 bit)
                Modulus:
                    00:ae:09:83:3a:b8:70:95:6b:35:0a:45:e9:92:d1:
                    83:17:e6:14:46:49:8c:b5:66:b8:0a:8e:db:85:b2:
                    42:21:23:f9:83:5a:56:9d:ae:18:ae:2c:4e:e3:e0:
                    49:80:8c:05:57:55:26:bf:16:cf:f7:c7:f7:de:e4:
                    52:73:c6:87:99:8c:b7:11:ba:32:0a:83:20:06:fd:
                    47:17:84:93:e8:78:fb:06:d1:4c:d4:73:ab:8d:68:
                    38:cd:0f:77:d9:8d:a8:f1:b1:1d:82:fa:25:43:a4:
                    24:55:49:8a:8a:b2:cd:38:4e:cb:c7:bb:0e:45:c8:
                    3d:34:7f:98:e7:db:aa:41:ff:58:7c:6a:d8:aa:a6:
                    b4:89:27:2a:87:30:f8:2c:05:12:31:60:37:e8:45:
                    ce:59:75:9f:b9:a9:21:fe:01:40:9c:e2:c5:75:24:
                    c1:6e:4a:3f:c2:52:7f:dc:9a:55:6c:90:1e:05:86:
                    df:c1:e2:c8:9b:d0:94:1a:b4:e8:e5:1c:21:0b:ae:
                    8a:2d:c4:7a:44:d7:22:69:b2:71:f4:50:1e:c9:9b:
                    ce:17:7e:a3:d9:5b:6e:81:07:87:47:3f:f0:9f:17:
                    60:00:80:9c:27:19:0c:57:13:9c:5b:00:a9:71:eb:
                    d3:09:e9:b4:4a:03:9b:92:c3:07:35:dc:04:ea:23:
                    04:27
                Exponent: 65537 (0x10001)
        X509v3 extensions:
            X509v3 Basic Constraints: 
                CA:FALSE
            X509v3 Subject Key Identifier: 
                3A:42:12:93:97:CC:86:45:1E:AE:6B:00:E7:76:2C:E5:8A:B0:FD:3B
            X509v3 Authority Key Identifier: 
                keyid:8B:20:EF:1E:79:AA:08:54:83:89:B6:B6:38:B0:FB:3E:78:16:A1:62
                DirName:/CN=Easy-RSA CA
                serial:79:7C:76:2B:CB:8E:27:F0:E7:73:9C:57:63:8C:36:CF:E6:78:3E:BD

            X509v3 Extended Key Usage: 
                TLS Web Client Authentication
            X509v3 Key Usage: 
                Digital Signature
    Signature Algorithm: sha256WithRSAEncryption
         56:9a:50:c2:20:28:fd:39:59:d2:79:8f:7e:89:61:6b:64:04:
         a0:05:f0:6a:21:e6:d9:ea:04:d1:a2:ab:34:99:38:77:7d:5c:
         79:bd:e5:ac:f4:90:2a:8d:33:0b:e3:a3:bb:3f:89:af:6a:63:
         73:c7:ff:d5:95:80:b6:91:da:0d:b4:46:36:2f:ee:ba:51:b1:
         03:6d:46:1b:11:f0:67:c9:1f:62:06:57:44:55:3c:d5:22:68:
         dc:aa:6b:74:d2:f4:6d:f0:a8:14:ec:af:2e:a5:f8:35:ed:1f:
         05:4b:7d:be:5f:eb:07:09:cf:85:e5:26:70:57:98:25:a1:e1:
         d6:84:75:21:60:70:56:7d:35:5e:33:4d:98:b5:94:d4:37:4c:
         c1:85:fc:a7:ed:37:75:89:d1:b0:83:d0:3e:73:6f:8b:f3:2e:
         01:33:39:b3:d3:57:99:64:bd:08:2b:a1:94:1f:76:18:43:30:
         8b:26:ad:ea:0c:08:8d:16:45:d2:12:ed:a3:ee:97:9e:a8:a2:
         00:7d:e1:86:6d:a8:49:d3:24:1f:9f:41:b3:41:5e:c8:4e:80:
         56:f1:a8:ce:af:0d:d0:32:ad:75:56:d9:7b:25:40:a8:3b:27:
         2d:1b:82:b3:d2:50:d8:b2:ae:25:a9:d5:e9:e2:c8:47:e4:60:
         6e:30:4c:32
-----BEGIN CERTIFICATE-----
MIIDWDCCAkCgAwIBAgIRAIbfoQkn49QeeHYC5P8gTLYwDQYJKoZIhvcNAQELBQAw
FjEUMBIGA1UEAwwLRWFzeS1SU0EgQ0EwHhcNMjEwNjE0MTEzODU1WhcNMjMwOTE3
MTEzODU1WjAUMRIwEAYDVQQDDAlnaGRldmhvc3QwggEiMA0GCSqGSIb3DQEBAQUA
A4IBDwAwggEKAoIBAQCuCYM6uHCVazUKRemS0YMX5hRGSYy1ZrgKjtuFskIhI/mD
WladrhiuLE7j4EmAjAVXVSa/Fs/3x/fe5FJzxoeZjLcRujIKgyAG/UcXhJPoePsG
0UzUc6uNaDjND3fZjajxsR2C+iVDpCRVSYqKss04TsvHuw5FyD00f5jn26pB/1h8
atiqprSJJyqHMPgsBRIxYDfoRc5ZdZ+5qSH+AUCc4sV1JMFuSj/CUn/cmlVskB4F
ht/B4sib0JQatOjlHCELrootxHpE1yJpsnH0UB7Jm84XfqPZW26BB4dHP/CfF2AA
gJwnGQxXE5xbAKlx69MJ6bRKA5uSwwc13ATqIwQnAgMBAAGjgaIwgZ8wCQYDVR0T
BAIwADAdBgNVHQ4EFgQUOkISk5fMhkUermsA53Ys5Yqw/TswUQYDVR0jBEowSIAU
iyDvHnmqCFSDiba2OLD7PngWoWKhGqQYMBYxFDASBgNVBAMMC0Vhc3ktUlNBIENB
ghR5fHYry44n8OdznFdjjDbP5ng+vTATBgNVHSUEDDAKBggrBgEFBQcDAjALBgNV
HQ8EBAMCB4AwDQYJKoZIhvcNAQELBQADggEBAFaaUMIgKP05WdJ5j36JYWtkBKAF
8Goh5tnqBNGiqzSZOHd9XHm95az0kCqNMwvjo7s/ia9qY3PH/9WVgLaR2g20RjYv
7rpRsQNtRhsR8GfJH2IGV0RVPNUiaNyqa3TS9G3wqBTsry6l+DXtHwVLfb5f6wcJ
z4XlJnBXmCWh4daEdSFgcFZ9NV4zTZi1lNQ3TMGF/KftN3WJ0bCD0D5zb4vzLgEz
ObPTV5lkvQgroZQfdhhDMIsmreoMCI0WRdIS7aPul56oogB94YZtqEnTJB+fQbNB
XshOgFbxqM6vDdAyrXVW2XslQKg7Jy0bgrPSUNiyriWp1eniyEfkYG4wTDI=
-----END CERTIFICATE-----
