Certificate:
    Data:
        Version: 3 (0x2)
        Serial Number:
            c9:3f:a7:42:44:c3:fa:c3:fd:d3:6e:3b:d7:23:d6:c7
        Signature Algorithm: sha256WithRSAEncryption
        Issuer: CN=Easy-RSA CA
        Validity
            Not Before: Jun  1 15:45:27 2021 GMT
            Not After : Sep  4 15:45:27 2023 GMT
        Subject: CN=rdp
        Subject Public Key Info:
            Public Key Algorithm: rsaEncryption
                RSA Public-Key: (2048 bit)
                Modulus:
                    00:ef:08:98:b9:3a:48:d4:00:26:15:fb:d5:cf:7a:
                    3e:ac:47:a2:80:f5:0b:4f:c8:15:a1:03:1e:f7:ec:
                    13:67:36:0a:c2:61:cb:8b:bd:f2:9d:d8:b7:d8:1d:
                    d3:68:79:1d:4b:69:ed:f5:77:16:24:4b:eb:ba:ea:
                    79:cd:64:a7:59:f5:fe:cc:e6:5f:54:7d:85:c7:c5:
                    5a:16:7a:f5:09:76:af:cd:07:8c:63:f8:c9:b9:58:
                    89:db:30:0b:cc:d2:02:c4:1e:23:c6:ba:41:75:75:
                    11:f9:ce:37:a7:1c:c3:e4:3c:7b:78:3d:bf:8e:b4:
                    3a:0b:fb:d8:60:ed:d5:42:0a:7a:14:7f:ac:7a:fc:
                    06:e1:e7:51:0a:3e:5e:83:5a:0a:36:fe:73:6c:c1:
                    f5:23:e2:a1:b8:c8:10:d7:a4:78:11:4f:2f:8f:57:
                    e1:da:e7:32:9c:4f:0d:a4:35:8c:41:d1:81:6e:6b:
                    09:c8:31:58:1a:53:dc:89:a1:d3:5a:38:cb:16:fd:
                    bb:47:03:e3:8c:29:1c:8b:95:03:17:a9:8c:cd:c7:
                    98:e1:ce:dd:e9:3d:6a:3c:a8:ce:35:99:e8:b0:28:
                    34:ad:76:a3:64:61:d7:fc:c4:9a:98:f6:ca:91:40:
                    1d:f0:8c:3b:60:8e:12:de:56:38:cd:a2:67:10:c7:
                    7f:53
                Exponent: 65537 (0x10001)
        X509v3 extensions:
            X509v3 Basic Constraints: 
                CA:FALSE
            X509v3 Subject Key Identifier: 
                1D:5C:CB:99:18:C2:57:DE:8A:49:BC:46:F6:E5:98:C6:84:04:D8:91
            X509v3 Authority Key Identifier: 
                keyid:8B:20:EF:1E:79:AA:08:54:83:89:B6:B6:38:B0:FB:3E:78:16:A1:62
                DirName:/CN=Easy-RSA CA
                serial:79:7C:76:2B:CB:8E:27:F0:E7:73:9C:57:63:8C:36:CF:E6:78:3E:BD

            X509v3 Extended Key Usage: 
                TLS Web Client Authentication
            X509v3 Key Usage: 
                Digital Signature
    Signature Algorithm: sha256WithRSAEncryption
         5a:9c:5e:07:43:c9:5c:c5:07:7b:a4:01:f6:02:ba:d0:d3:d9:
         e6:ff:25:06:76:c2:df:7a:66:72:cc:e3:01:b5:b1:1c:9f:01:
         c9:ba:4d:2f:7a:ea:00:f0:e4:5d:4c:35:94:fb:bc:08:57:f0:
         63:f3:e0:e2:6a:79:ab:b4:95:67:b9:54:d9:1d:e4:38:78:e3:
         ee:06:8c:ef:be:81:14:4c:48:6b:0b:a1:6f:ae:d1:ab:78:20:
         64:fe:3c:36:57:4d:8b:6e:1e:47:da:13:97:88:27:58:c7:08:
         9c:28:4c:65:81:aa:c6:f7:3c:7d:79:fc:6a:f9:9e:67:ec:76:
         c7:72:81:de:26:07:b8:17:18:3b:11:b9:ba:40:dd:72:f0:60:
         1a:87:e1:99:6e:5a:77:9b:49:a0:26:47:53:61:f3:f0:76:f3:
         8f:6e:a9:d5:f3:d8:6d:1d:7d:46:d1:d4:eb:6a:6c:74:02:da:
         d4:bc:38:77:56:10:3d:fe:75:6d:0f:44:d2:8e:91:4e:da:b5:
         cd:5d:12:b6:d9:34:47:1b:ba:03:fe:ab:5f:0f:18:da:95:85:
         3c:ed:f2:7f:82:3f:64:f1:cc:2c:25:e0:55:33:a3:39:18:25:
         09:8f:fd:4a:1e:ef:d9:74:85:76:07:fa:58:7c:b2:c4:7e:67:
         66:7a:d5:fe
-----BEGIN CERTIFICATE-----
MIIDUjCCAjqgAwIBAgIRAMk/p0JEw/rD/dNuO9cj1scwDQYJKoZIhvcNAQELBQAw
FjEUMBIGA1UEAwwLRWFzeS1SU0EgQ0EwHhcNMjEwNjAxMTU0NTI3WhcNMjMwOTA0
MTU0NTI3WjAOMQwwCgYDVQQDDANyZHAwggEiMA0GCSqGSIb3DQEBAQUAA4IBDwAw
ggEKAoIBAQDvCJi5OkjUACYV+9XPej6sR6KA9QtPyBWhAx737BNnNgrCYcuLvfKd
2LfYHdNoeR1Lae31dxYkS+u66nnNZKdZ9f7M5l9UfYXHxVoWevUJdq/NB4xj+Mm5
WInbMAvM0gLEHiPGukF1dRH5zjenHMPkPHt4Pb+OtDoL+9hg7dVCCnoUf6x6/Abh
51EKPl6DWgo2/nNswfUj4qG4yBDXpHgRTy+PV+Ha5zKcTw2kNYxB0YFuawnIMVga
U9yJodNaOMsW/btHA+OMKRyLlQMXqYzNx5jhzt3pPWo8qM41meiwKDStdqNkYdf8
xJqY9sqRQB3wjDtgjhLeVjjNomcQx39TAgMBAAGjgaIwgZ8wCQYDVR0TBAIwADAd
BgNVHQ4EFgQUHVzLmRjCV96KSbxG9uWYxoQE2JEwUQYDVR0jBEowSIAUiyDvHnmq
CFSDiba2OLD7PngWoWKhGqQYMBYxFDASBgNVBAMMC0Vhc3ktUlNBIENBghR5fHYr
y44n8OdznFdjjDbP5ng+vTATBgNVHSUEDDAKBggrBgEFBQcDAjALBgNVHQ8EBAMC
B4AwDQYJKoZIhvcNAQELBQADggEBAFqcXgdDyVzFB3ukAfYCutDT2eb/JQZ2wt96
ZnLM4wG1sRyfAcm6TS966gDw5F1MNZT7vAhX8GPz4OJqeau0lWe5VNkd5Dh44+4G
jO++gRRMSGsLoW+u0at4IGT+PDZXTYtuHkfaE5eIJ1jHCJwoTGWBqsb3PH15/Gr5
nmfsdsdygd4mB7gXGDsRubpA3XLwYBqH4ZluWnebSaAmR1Nh8/B2849uqdXz2G0d
fUbR1OtqbHQC2tS8OHdWED3+dW0PRNKOkU7atc1dErbZNEcbugP+q18PGNqVhTzt
8n+CP2TxzCwl4FUzozkYJQmP/Uoe79l0hXYH+lh8ssR+Z2Z61f4=
-----END CERTIFICATE-----
