Certificate:
    Data:
        Version: 3 (0x2)
        Serial Number:
            96:99:06:ce:83:41:98:92:3d:a0:d6:16:da:58:f3:fa
        Signature Algorithm: sha256WithRSAEncryption
        Issuer: CN=Easy-RSA CA
        Validity
            Not Before: Aug 15 04:37:23 2021 GMT
            Not After : Nov 18 04:37:23 2023 GMT
        Subject: CN=win1
        Subject Public Key Info:
            Public Key Algorithm: rsaEncryption
                RSA Public-Key: (2048 bit)
                Modulus:
                    00:ba:d1:68:b8:23:b0:7c:fd:04:19:8a:da:7c:a7:
                    0b:76:e7:c2:d5:08:aa:d3:f9:f2:66:f8:54:4b:86:
                    16:ec:af:76:46:ad:94:62:ca:2a:66:f9:b3:af:8f:
                    78:32:ff:d0:c2:e8:f6:3e:9d:dc:52:56:4c:4b:e3:
                    4b:e0:68:6c:c0:43:e0:35:6e:76:ba:00:05:78:53:
                    a7:bb:d7:9b:9e:ba:a7:38:99:5e:6b:02:23:79:f1:
                    a6:20:b8:64:4a:2a:4a:81:52:a0:03:1a:d2:9b:bc:
                    24:01:e4:ff:b1:95:97:db:0e:c7:04:9a:5a:9f:cc:
                    47:0a:dd:c1:17:36:28:f4:0d:e4:96:55:ad:e1:08:
                    dd:73:59:e6:f8:50:dc:ab:2d:f8:e9:19:7d:85:d1:
                    a4:e6:56:a1:08:47:13:0c:8a:60:9f:47:5a:cf:0e:
                    db:ac:16:f1:8a:35:32:3a:94:25:94:b9:24:dd:91:
                    c3:b8:4a:d4:a1:5a:c2:53:14:a6:29:77:ca:a2:42:
                    d1:da:67:ee:7a:d6:1f:20:04:ed:4c:27:5f:5b:fe:
                    eb:64:22:15:94:1e:31:81:e9:1c:a4:5d:52:c6:80:
                    30:03:d3:81:06:19:ce:c1:41:f9:a8:fd:70:65:78:
                    c2:fe:9b:31:11:e8:d7:88:44:27:11:9c:5a:d4:68:
                    83:8f
                Exponent: 65537 (0x10001)
        X509v3 extensions:
            X509v3 Basic Constraints: 
                CA:FALSE
            X509v3 Subject Key Identifier: 
                1F:40:8C:FC:A7:2A:05:55:70:CA:D8:39:86:79:A6:26:2B:63:68:D1
            X509v3 Authority Key Identifier: 
                keyid:8B:20:EF:1E:79:AA:08:54:83:89:B6:B6:38:B0:FB:3E:78:16:A1:62
                DirName:/CN=Easy-RSA CA
                serial:79:7C:76:2B:CB:8E:27:F0:E7:73:9C:57:63:8C:36:CF:E6:78:3E:BD

            X509v3 Extended Key Usage: 
                TLS Web Client Authentication
            X509v3 Key Usage: 
                Digital Signature
    Signature Algorithm: sha256WithRSAEncryption
         35:d3:50:32:20:de:1f:54:69:d4:b9:94:d8:63:9a:6b:b8:2c:
         8b:f9:0a:62:82:e4:d2:fe:ef:59:4b:a3:24:ab:79:90:a4:8c:
         50:b2:22:4c:66:54:7e:06:5d:37:50:08:62:60:dd:08:59:01:
         7d:fc:ab:09:26:47:c0:98:c8:09:4f:6d:41:b6:4b:5a:17:47:
         ca:03:2a:d9:d5:1d:23:b8:22:ab:e8:d8:ce:03:fb:c9:ee:95:
         42:98:c5:f4:ae:31:4a:93:85:7a:ed:33:85:6d:95:7e:30:7a:
         df:2c:73:00:54:d4:78:50:74:81:d7:87:84:9f:a1:59:05:79:
         ee:b0:25:58:5d:02:0a:34:f4:f1:33:02:12:f5:17:f1:92:c8:
         77:3c:8f:91:c3:f9:6b:50:82:cd:61:f3:81:99:eb:ee:4d:e2:
         a0:d3:f5:2d:50:c8:3d:09:20:14:e2:78:fe:8f:7f:22:dc:d7:
         af:b8:ad:57:ef:cf:3a:6c:58:38:32:ec:c0:71:35:68:28:1d:
         a3:ff:61:40:3b:35:c4:18:7d:48:2a:b7:8f:a2:9e:ee:41:74:
         5e:a5:bb:79:76:6c:4f:57:24:bb:55:5c:7a:f9:3a:80:e1:f5:
         1a:51:8e:76:16:ac:fa:90:10:f3:23:ad:20:db:04:21:58:0b:
         0b:ca:fb:62
-----BEGIN CERTIFICATE-----
MIIDUzCCAjugAwIBAgIRAJaZBs6DQZiSPaDWFtpY8/owDQYJKoZIhvcNAQELBQAw
FjEUMBIGA1UEAwwLRWFzeS1SU0EgQ0EwHhcNMjEwODE1MDQzNzIzWhcNMjMxMTE4
MDQzNzIzWjAPMQ0wCwYDVQQDDAR3aW4xMIIBIjANBgkqhkiG9w0BAQEFAAOCAQ8A
MIIBCgKCAQEAutFouCOwfP0EGYrafKcLdufC1Qiq0/nyZvhUS4YW7K92Rq2UYsoq
Zvmzr494Mv/Qwuj2Pp3cUlZMS+NL4GhswEPgNW52ugAFeFOnu9ebnrqnOJleawIj
efGmILhkSipKgVKgAxrSm7wkAeT/sZWX2w7HBJpan8xHCt3BFzYo9A3kllWt4Qjd
c1nm+FDcqy346Rl9hdGk5lahCEcTDIpgn0dazw7brBbxijUyOpQllLkk3ZHDuErU
oVrCUxSmKXfKokLR2mfuetYfIATtTCdfW/7rZCIVlB4xgekcpF1SxoAwA9OBBhnO
wUH5qP1wZXjC/psxEejXiEQnEZxa1GiDjwIDAQABo4GiMIGfMAkGA1UdEwQCMAAw
HQYDVR0OBBYEFB9AjPynKgVVcMrYOYZ5piYrY2jRMFEGA1UdIwRKMEiAFIsg7x55
qghUg4m2tjiw+z54FqFioRqkGDAWMRQwEgYDVQQDDAtFYXN5LVJTQSBDQYIUeXx2
K8uOJ/Dnc5xXY4w2z+Z4Pr0wEwYDVR0lBAwwCgYIKwYBBQUHAwIwCwYDVR0PBAQD
AgeAMA0GCSqGSIb3DQEBCwUAA4IBAQA101AyIN4fVGnUuZTYY5pruCyL+QpiguTS
/u9ZS6Mkq3mQpIxQsiJMZlR+Bl03UAhiYN0IWQF9/KsJJkfAmMgJT21BtktaF0fK
AyrZ1R0juCKr6NjOA/vJ7pVCmMX0rjFKk4V67TOFbZV+MHrfLHMAVNR4UHSB14eE
n6FZBXnusCVYXQIKNPTxMwIS9Rfxksh3PI+Rw/lrUILNYfOBmevuTeKg0/UtUMg9
CSAU4nj+j38i3NevuK1X7886bFg4MuzAcTVoKB2j/2FAOzXEGH1IKrePop7uQXRe
pbt5dmxPVyS7VVx6+TqA4fUaUY52Fqz6kBDzI60g2wQhWAsLyvti
-----END CERTIFICATE-----
